 Tetraedro_model_sem_sim_com_FK_heur_sfun

 Timestamp is 525dfbc3 (Tue Oct 15 23:36:51 2013)

 Preferred load address is 0000000180000000

 Start         Length     Name                   Class
 0001:00000000 0009e67cH .text                   CODE
 0001:0009e680 0000005eH .text$00                CODE
 0001:0009e6e0 00000091H .text$x                 CODE
 0002:00000000 000004e0H .idata$5                DATA
 0002:000004e0 00000008H .CRT$XCA                DATA
 0002:000004e8 00000008H .CRT$XCZ                DATA
 0002:000004f0 00000008H .CRT$XIA                DATA
 0002:000004f8 00000008H .CRT$XIAA               DATA
 0002:00000500 00000008H .CRT$XIZ                DATA
 0002:00000510 00004d3cH .rdata                  DATA
 0002:00005250 00000008H .rtc$IAA                DATA
 0002:00005258 00000008H .rtc$IZZ                DATA
 0002:00005260 00000008H .rtc$TAA                DATA
 0002:00005268 00000008H .rtc$TZZ                DATA
 0002:00005270 000055fcH .xdata                  DATA
 0002:0000a86c 000000a0H .idata$2                DATA
 0002:0000a90c 00000014H .idata$3                DATA
 0002:0000a920 000004e0H .idata$4                DATA
 0002:0000ae00 00000b7cH .idata$6                DATA
 0002:0000b980 0000006eH .edata                  DATA
 0003:00000000 0001b318H .data                   DATA
 0003:0001b320 00002558H .bss                    DATA
 0004:00000000 00004ee4H .pdata                  DATA

  Address         Publics by Value              Rva+Base               Lib:Object

 0000:00000000       ___safe_se_handler_table   0000000000000000     <absolute>
 0000:00000000       ___safe_se_handler_count   0000000000000000     <absolute>
 0000:00000000       __ImageBase                0000000180000000     <linker-defined>
 0001:00000000       sf_c1_Tetraedro_model_sem_sim_com_FK_heur_get_eml_resolved_functions_info 0000000180001000 f   c1_Tetraedro_model_sem_sim_com_FK_heur.obj
 0001:00001bc0       sf_c1_Tetraedro_model_sem_sim_com_FK_heur_get_check_sum 0000000180002bc0 f   c1_Tetraedro_model_sem_sim_com_FK_heur.obj
 0001:00001c40       sf_c1_Tetraedro_model_sem_sim_com_FK_heur_get_autoinheritance_info 0000000180002c40 f   c1_Tetraedro_model_sem_sim_com_FK_heur.obj
 0001:00002430       sf_c1_Tetraedro_model_sem_sim_com_FK_heur_third_party_uses_info 0000000180003430 f   c1_Tetraedro_model_sem_sim_com_FK_heur.obj
 0001:00002460       sf_internal_get_sim_state_c1_Tetraedro_model_sem_sim_com_FK_heur 0000000180003460 f   c1_Tetraedro_model_sem_sim_com_FK_heur.obj
 0001:000027f0       sf_internal_set_sim_state_c1_Tetraedro_model_sem_sim_com_FK_heur 00000001800037f0 f   c1_Tetraedro_model_sem_sim_com_FK_heur.obj
 0001:00002c60       c1_Tetraedro_model_sem_sim_com_FK_heur_method_dispatcher 0000000180003c60 f   c1_Tetraedro_model_sem_sim_com_FK_heur.obj
 0001:00008ad0       sf_c2_Tetraedro_model_sem_sim_com_FK_heur_get_eml_resolved_functions_info 0000000180009ad0 f   c2_Tetraedro_model_sem_sim_com_FK_heur.obj
 0001:0000a350       sf_c2_Tetraedro_model_sem_sim_com_FK_heur_get_check_sum 000000018000b350 f   c2_Tetraedro_model_sem_sim_com_FK_heur.obj
 0001:0000a3d0       sf_c2_Tetraedro_model_sem_sim_com_FK_heur_get_autoinheritance_info 000000018000b3d0 f   c2_Tetraedro_model_sem_sim_com_FK_heur.obj
 0001:0000a940       sf_c2_Tetraedro_model_sem_sim_com_FK_heur_third_party_uses_info 000000018000b940 f   c2_Tetraedro_model_sem_sim_com_FK_heur.obj
 0001:0000a970       sf_internal_get_sim_state_c2_Tetraedro_model_sem_sim_com_FK_heur 000000018000b970 f   c2_Tetraedro_model_sem_sim_com_FK_heur.obj
 0001:0000ad00       sf_internal_set_sim_state_c2_Tetraedro_model_sem_sim_com_FK_heur 000000018000bd00 f   c2_Tetraedro_model_sem_sim_com_FK_heur.obj
 0001:0000b170       c2_Tetraedro_model_sem_sim_com_FK_heur_method_dispatcher 000000018000c170 f   c2_Tetraedro_model_sem_sim_com_FK_heur.obj
 0001:000107c0       sf_c3_Tetraedro_model_sem_sim_com_FK_heur_get_eml_resolved_functions_info 00000001800117c0 f   c3_Tetraedro_model_sem_sim_com_FK_heur.obj
 0001:00011ac0       sf_c3_Tetraedro_model_sem_sim_com_FK_heur_get_check_sum 0000000180012ac0 f   c3_Tetraedro_model_sem_sim_com_FK_heur.obj
 0001:00011b40       sf_c3_Tetraedro_model_sem_sim_com_FK_heur_get_autoinheritance_info 0000000180012b40 f   c3_Tetraedro_model_sem_sim_com_FK_heur.obj
 0001:00011f60       sf_c3_Tetraedro_model_sem_sim_com_FK_heur_third_party_uses_info 0000000180012f60 f   c3_Tetraedro_model_sem_sim_com_FK_heur.obj
 0001:00011f90       sf_internal_get_sim_state_c3_Tetraedro_model_sem_sim_com_FK_heur 0000000180012f90 f   c3_Tetraedro_model_sem_sim_com_FK_heur.obj
 0001:00012330       sf_internal_set_sim_state_c3_Tetraedro_model_sem_sim_com_FK_heur 0000000180013330 f   c3_Tetraedro_model_sem_sim_com_FK_heur.obj
 0001:000127b0       c3_Tetraedro_model_sem_sim_com_FK_heur_method_dispatcher 00000001800137b0 f   c3_Tetraedro_model_sem_sim_com_FK_heur.obj
 0001:000154d0       sf_c4_Tetraedro_model_sem_sim_com_FK_heur_get_eml_resolved_functions_info 00000001800164d0 f   c4_Tetraedro_model_sem_sim_com_FK_heur.obj
 0001:00015550       sf_c4_Tetraedro_model_sem_sim_com_FK_heur_get_check_sum 0000000180016550 f   c4_Tetraedro_model_sem_sim_com_FK_heur.obj
 0001:000155d0       sf_c4_Tetraedro_model_sem_sim_com_FK_heur_get_autoinheritance_info 00000001800165d0 f   c4_Tetraedro_model_sem_sim_com_FK_heur.obj
 0001:000161b0       sf_c4_Tetraedro_model_sem_sim_com_FK_heur_third_party_uses_info 00000001800171b0 f   c4_Tetraedro_model_sem_sim_com_FK_heur.obj
 0001:000161e0       sf_internal_get_sim_state_c4_Tetraedro_model_sem_sim_com_FK_heur 00000001800171e0 f   c4_Tetraedro_model_sem_sim_com_FK_heur.obj
 0001:00016860       sf_internal_set_sim_state_c4_Tetraedro_model_sem_sim_com_FK_heur 0000000180017860 f   c4_Tetraedro_model_sem_sim_com_FK_heur.obj
 0001:00016ef0       c4_Tetraedro_model_sem_sim_com_FK_heur_method_dispatcher 0000000180017ef0 f   c4_Tetraedro_model_sem_sim_com_FK_heur.obj
 0001:0001a810       sf_c5_Tetraedro_model_sem_sim_com_FK_heur_get_eml_resolved_functions_info 000000018001b810 f   c5_Tetraedro_model_sem_sim_com_FK_heur.obj
 0001:0001c430       sf_c5_Tetraedro_model_sem_sim_com_FK_heur_get_check_sum 000000018001d430 f   c5_Tetraedro_model_sem_sim_com_FK_heur.obj
 0001:0001c4b0       sf_c5_Tetraedro_model_sem_sim_com_FK_heur_get_autoinheritance_info 000000018001d4b0 f   c5_Tetraedro_model_sem_sim_com_FK_heur.obj
 0001:0001cca0       sf_c5_Tetraedro_model_sem_sim_com_FK_heur_third_party_uses_info 000000018001dca0 f   c5_Tetraedro_model_sem_sim_com_FK_heur.obj
 0001:0001ccd0       sf_internal_get_sim_state_c5_Tetraedro_model_sem_sim_com_FK_heur 000000018001dcd0 f   c5_Tetraedro_model_sem_sim_com_FK_heur.obj
 0001:0001d050       sf_internal_set_sim_state_c5_Tetraedro_model_sem_sim_com_FK_heur 000000018001e050 f   c5_Tetraedro_model_sem_sim_com_FK_heur.obj
 0001:0001d4c0       c5_Tetraedro_model_sem_sim_com_FK_heur_method_dispatcher 000000018001e4c0 f   c5_Tetraedro_model_sem_sim_com_FK_heur.obj
 0001:00023320       sf_c6_Tetraedro_model_sem_sim_com_FK_heur_get_eml_resolved_functions_info 0000000180024320 f   c6_Tetraedro_model_sem_sim_com_FK_heur.obj
 0001:00025cc0       sf_c6_Tetraedro_model_sem_sim_com_FK_heur_get_check_sum 0000000180026cc0 f   c6_Tetraedro_model_sem_sim_com_FK_heur.obj
 0001:00025d40       sf_c6_Tetraedro_model_sem_sim_com_FK_heur_get_autoinheritance_info 0000000180026d40 f   c6_Tetraedro_model_sem_sim_com_FK_heur.obj
 0001:00026910       sf_c6_Tetraedro_model_sem_sim_com_FK_heur_third_party_uses_info 0000000180027910 f   c6_Tetraedro_model_sem_sim_com_FK_heur.obj
 0001:00026940       sf_internal_get_sim_state_c6_Tetraedro_model_sem_sim_com_FK_heur 0000000180027940 f   c6_Tetraedro_model_sem_sim_com_FK_heur.obj
 0001:00026e00       sf_internal_set_sim_state_c6_Tetraedro_model_sem_sim_com_FK_heur 0000000180027e00 f   c6_Tetraedro_model_sem_sim_com_FK_heur.obj
 0001:00027340       c6_Tetraedro_model_sem_sim_com_FK_heur_method_dispatcher 0000000180028340 f   c6_Tetraedro_model_sem_sim_com_FK_heur.obj
 0001:0002ce00       sf_c7_Tetraedro_model_sem_sim_com_FK_heur_get_eml_resolved_functions_info 000000018002de00 f   c7_Tetraedro_model_sem_sim_com_FK_heur.obj
 0001:0002ce80       sf_c7_Tetraedro_model_sem_sim_com_FK_heur_get_check_sum 000000018002de80 f   c7_Tetraedro_model_sem_sim_com_FK_heur.obj
 0001:0002cf00       sf_c7_Tetraedro_model_sem_sim_com_FK_heur_get_autoinheritance_info 000000018002df00 f   c7_Tetraedro_model_sem_sim_com_FK_heur.obj
 0001:0002d710       sf_c7_Tetraedro_model_sem_sim_com_FK_heur_third_party_uses_info 000000018002e710 f   c7_Tetraedro_model_sem_sim_com_FK_heur.obj
 0001:0002d740       sf_internal_get_sim_state_c7_Tetraedro_model_sem_sim_com_FK_heur 000000018002e740 f   c7_Tetraedro_model_sem_sim_com_FK_heur.obj
 0001:0002dd70       sf_internal_set_sim_state_c7_Tetraedro_model_sem_sim_com_FK_heur 000000018002ed70 f   c7_Tetraedro_model_sem_sim_com_FK_heur.obj
 0001:0002e5c0       c7_Tetraedro_model_sem_sim_com_FK_heur_method_dispatcher 000000018002f5c0 f   c7_Tetraedro_model_sem_sim_com_FK_heur.obj
 0001:00031870       sf_c8_Tetraedro_model_sem_sim_com_FK_heur_get_eml_resolved_functions_info 0000000180032870 f   c8_Tetraedro_model_sem_sim_com_FK_heur.obj
 0001:00032760       sf_c8_Tetraedro_model_sem_sim_com_FK_heur_get_check_sum 0000000180033760 f   c8_Tetraedro_model_sem_sim_com_FK_heur.obj
 0001:000327e0       sf_c8_Tetraedro_model_sem_sim_com_FK_heur_get_autoinheritance_info 00000001800337e0 f   c8_Tetraedro_model_sem_sim_com_FK_heur.obj
 0001:00032c00       sf_c8_Tetraedro_model_sem_sim_com_FK_heur_third_party_uses_info 0000000180033c00 f   c8_Tetraedro_model_sem_sim_com_FK_heur.obj
 0001:00032c30       sf_internal_get_sim_state_c8_Tetraedro_model_sem_sim_com_FK_heur 0000000180033c30 f   c8_Tetraedro_model_sem_sim_com_FK_heur.obj
 0001:00032f80       sf_internal_set_sim_state_c8_Tetraedro_model_sem_sim_com_FK_heur 0000000180033f80 f   c8_Tetraedro_model_sem_sim_com_FK_heur.obj
 0001:00033380       c8_Tetraedro_model_sem_sim_com_FK_heur_method_dispatcher 0000000180034380 f   c8_Tetraedro_model_sem_sim_com_FK_heur.obj
 0001:00035650       sf_c9_Tetraedro_model_sem_sim_com_FK_heur_get_eml_resolved_functions_info 0000000180036650 f   c9_Tetraedro_model_sem_sim_com_FK_heur.obj
 0001:00035b40       sf_c9_Tetraedro_model_sem_sim_com_FK_heur_get_check_sum 0000000180036b40 f   c9_Tetraedro_model_sem_sim_com_FK_heur.obj
 0001:00035bc0       sf_c9_Tetraedro_model_sem_sim_com_FK_heur_get_autoinheritance_info 0000000180036bc0 f   c9_Tetraedro_model_sem_sim_com_FK_heur.obj
 0001:00036280       sf_c9_Tetraedro_model_sem_sim_com_FK_heur_third_party_uses_info 0000000180037280 f   c9_Tetraedro_model_sem_sim_com_FK_heur.obj
 0001:000362b0       sf_internal_get_sim_state_c9_Tetraedro_model_sem_sim_com_FK_heur 00000001800372b0 f   c9_Tetraedro_model_sem_sim_com_FK_heur.obj
 0001:000366d0       sf_internal_set_sim_state_c9_Tetraedro_model_sem_sim_com_FK_heur 00000001800376d0 f   c9_Tetraedro_model_sem_sim_com_FK_heur.obj
 0001:00036b20       c9_Tetraedro_model_sem_sim_com_FK_heur_method_dispatcher 0000000180037b20 f   c9_Tetraedro_model_sem_sim_com_FK_heur.obj
 0001:00038fe0       sf_c10_Tetraedro_model_sem_sim_com_FK_heur_get_eml_resolved_functions_info 0000000180039fe0 f   c10_Tetraedro_model_sem_sim_com_FK_heur.obj
 0001:00039060       sf_c10_Tetraedro_model_sem_sim_com_FK_heur_get_check_sum 000000018003a060 f   c10_Tetraedro_model_sem_sim_com_FK_heur.obj
 0001:000390e0       sf_c10_Tetraedro_model_sem_sim_com_FK_heur_get_autoinheritance_info 000000018003a0e0 f   c10_Tetraedro_model_sem_sim_com_FK_heur.obj
 0001:00039500       sf_c10_Tetraedro_model_sem_sim_com_FK_heur_third_party_uses_info 000000018003a500 f   c10_Tetraedro_model_sem_sim_com_FK_heur.obj
 0001:00039530       sf_internal_get_sim_state_c10_Tetraedro_model_sem_sim_com_FK_heur 000000018003a530 f   c10_Tetraedro_model_sem_sim_com_FK_heur.obj
 0001:000398d0       sf_internal_set_sim_state_c10_Tetraedro_model_sem_sim_com_FK_heur 000000018003a8d0 f   c10_Tetraedro_model_sem_sim_com_FK_heur.obj
 0001:00039d40       c10_Tetraedro_model_sem_sim_com_FK_heur_method_dispatcher 000000018003ad40 f   c10_Tetraedro_model_sem_sim_com_FK_heur.obj
 0001:0003bdc0       sf_c13_Tetraedro_model_sem_sim_com_FK_heur_get_eml_resolved_functions_info 000000018003cdc0 f   c13_Tetraedro_model_sem_sim_com_FK_heur.obj
 0001:0003d5a0       sf_c13_Tetraedro_model_sem_sim_com_FK_heur_get_check_sum 000000018003e5a0 f   c13_Tetraedro_model_sem_sim_com_FK_heur.obj
 0001:0003d620       sf_c13_Tetraedro_model_sem_sim_com_FK_heur_get_autoinheritance_info 000000018003e620 f   c13_Tetraedro_model_sem_sim_com_FK_heur.obj
 0001:0003dcd0       sf_c13_Tetraedro_model_sem_sim_com_FK_heur_third_party_uses_info 000000018003ecd0 f   c13_Tetraedro_model_sem_sim_com_FK_heur.obj
 0001:0003dd00       sf_internal_get_sim_state_c13_Tetraedro_model_sem_sim_com_FK_heur 000000018003ed00 f   c13_Tetraedro_model_sem_sim_com_FK_heur.obj
 0001:0003e080       sf_internal_set_sim_state_c13_Tetraedro_model_sem_sim_com_FK_heur 000000018003f080 f   c13_Tetraedro_model_sem_sim_com_FK_heur.obj
 0001:0003e4f0       c13_Tetraedro_model_sem_sim_com_FK_heur_method_dispatcher 000000018003f4f0 f   c13_Tetraedro_model_sem_sim_com_FK_heur.obj
 0001:000437b0       sf_c14_Tetraedro_model_sem_sim_com_FK_heur_get_eml_resolved_functions_info 00000001800447b0 f   c14_Tetraedro_model_sem_sim_com_FK_heur.obj
 0001:00043830       sf_c14_Tetraedro_model_sem_sim_com_FK_heur_get_check_sum 0000000180044830 f   c14_Tetraedro_model_sem_sim_com_FK_heur.obj
 0001:000438b0       sf_c14_Tetraedro_model_sem_sim_com_FK_heur_get_autoinheritance_info 00000001800448b0 f   c14_Tetraedro_model_sem_sim_com_FK_heur.obj
 0001:00043cd0       sf_c14_Tetraedro_model_sem_sim_com_FK_heur_third_party_uses_info 0000000180044cd0 f   c14_Tetraedro_model_sem_sim_com_FK_heur.obj
 0001:00043d00       sf_internal_get_sim_state_c14_Tetraedro_model_sem_sim_com_FK_heur 0000000180044d00 f   c14_Tetraedro_model_sem_sim_com_FK_heur.obj
 0001:00044080       sf_internal_set_sim_state_c14_Tetraedro_model_sem_sim_com_FK_heur 0000000180045080 f   c14_Tetraedro_model_sem_sim_com_FK_heur.obj
 0001:00044520       c14_Tetraedro_model_sem_sim_com_FK_heur_method_dispatcher 0000000180045520 f   c14_Tetraedro_model_sem_sim_com_FK_heur.obj
 0001:00046650       sf_c15_Tetraedro_model_sem_sim_com_FK_heur_get_eml_resolved_functions_info 0000000180047650 f   c15_Tetraedro_model_sem_sim_com_FK_heur.obj
 0001:000466d0       sf_c15_Tetraedro_model_sem_sim_com_FK_heur_get_check_sum 00000001800476d0 f   c15_Tetraedro_model_sem_sim_com_FK_heur.obj
 0001:00046750       sf_c15_Tetraedro_model_sem_sim_com_FK_heur_get_autoinheritance_info 0000000180047750 f   c15_Tetraedro_model_sem_sim_com_FK_heur.obj
 0001:00046cc0       sf_c15_Tetraedro_model_sem_sim_com_FK_heur_third_party_uses_info 0000000180047cc0 f   c15_Tetraedro_model_sem_sim_com_FK_heur.obj
 0001:00046cf0       sf_internal_get_sim_state_c15_Tetraedro_model_sem_sim_com_FK_heur 0000000180047cf0 f   c15_Tetraedro_model_sem_sim_com_FK_heur.obj
 0001:00047150       sf_internal_set_sim_state_c15_Tetraedro_model_sem_sim_com_FK_heur 0000000180048150 f   c15_Tetraedro_model_sem_sim_com_FK_heur.obj
 0001:000477b0       c15_Tetraedro_model_sem_sim_com_FK_heur_method_dispatcher 00000001800487b0 f   c15_Tetraedro_model_sem_sim_com_FK_heur.obj
 0001:00049c20       sf_c16_Tetraedro_model_sem_sim_com_FK_heur_get_eml_resolved_functions_info 000000018004ac20 f   c16_Tetraedro_model_sem_sim_com_FK_heur.obj
 0001:0004af30       sf_c16_Tetraedro_model_sem_sim_com_FK_heur_get_check_sum 000000018004bf30 f   c16_Tetraedro_model_sem_sim_com_FK_heur.obj
 0001:0004afb0       sf_c16_Tetraedro_model_sem_sim_com_FK_heur_get_autoinheritance_info 000000018004bfb0 f   c16_Tetraedro_model_sem_sim_com_FK_heur.obj
 0001:0004b3d0       sf_c16_Tetraedro_model_sem_sim_com_FK_heur_third_party_uses_info 000000018004c3d0 f   c16_Tetraedro_model_sem_sim_com_FK_heur.obj
 0001:0004b400       sf_internal_get_sim_state_c16_Tetraedro_model_sem_sim_com_FK_heur 000000018004c400 f   c16_Tetraedro_model_sem_sim_com_FK_heur.obj
 0001:0004b7c0       sf_internal_set_sim_state_c16_Tetraedro_model_sem_sim_com_FK_heur 000000018004c7c0 f   c16_Tetraedro_model_sem_sim_com_FK_heur.obj
 0001:0004bc50       c16_Tetraedro_model_sem_sim_com_FK_heur_method_dispatcher 000000018004cc50 f   c16_Tetraedro_model_sem_sim_com_FK_heur.obj
 0001:0004e970       sf_c19_Tetraedro_model_sem_sim_com_FK_heur_get_eml_resolved_functions_info 000000018004f970 f   c19_Tetraedro_model_sem_sim_com_FK_heur.obj
 0001:00050d50       sf_c19_Tetraedro_model_sem_sim_com_FK_heur_get_check_sum 0000000180051d50 f   c19_Tetraedro_model_sem_sim_com_FK_heur.obj
 0001:00050dd0       sf_c19_Tetraedro_model_sem_sim_com_FK_heur_get_autoinheritance_info 0000000180051dd0 f   c19_Tetraedro_model_sem_sim_com_FK_heur.obj
 0001:00051ae0       sf_c19_Tetraedro_model_sem_sim_com_FK_heur_third_party_uses_info 0000000180052ae0 f   c19_Tetraedro_model_sem_sim_com_FK_heur.obj
 0001:00051b10       sf_internal_get_sim_state_c19_Tetraedro_model_sem_sim_com_FK_heur 0000000180052b10 f   c19_Tetraedro_model_sem_sim_com_FK_heur.obj
 0001:00052090       sf_internal_set_sim_state_c19_Tetraedro_model_sem_sim_com_FK_heur 0000000180053090 f   c19_Tetraedro_model_sem_sim_com_FK_heur.obj
 0001:000528a0       c19_Tetraedro_model_sem_sim_com_FK_heur_method_dispatcher 00000001800538a0 f   c19_Tetraedro_model_sem_sim_com_FK_heur.obj
 0001:0005a550       sf_c21_Tetraedro_model_sem_sim_com_FK_heur_get_eml_resolved_functions_info 000000018005b550 f   c21_Tetraedro_model_sem_sim_com_FK_heur.obj
 0001:0005dd00       sf_c21_Tetraedro_model_sem_sim_com_FK_heur_get_check_sum 000000018005ed00 f   c21_Tetraedro_model_sem_sim_com_FK_heur.obj
 0001:0005dd80       sf_c21_Tetraedro_model_sem_sim_com_FK_heur_get_autoinheritance_info 000000018005ed80 f   c21_Tetraedro_model_sem_sim_com_FK_heur.obj
 0001:0005e950       sf_c21_Tetraedro_model_sem_sim_com_FK_heur_third_party_uses_info 000000018005f950 f   c21_Tetraedro_model_sem_sim_com_FK_heur.obj
 0001:0005e980       sf_internal_get_sim_state_c21_Tetraedro_model_sem_sim_com_FK_heur 000000018005f980 f   c21_Tetraedro_model_sem_sim_com_FK_heur.obj
 0001:0005ef20       sf_internal_set_sim_state_c21_Tetraedro_model_sem_sim_com_FK_heur 000000018005ff20 f   c21_Tetraedro_model_sem_sim_com_FK_heur.obj
 0001:0005f7c0       c21_Tetraedro_model_sem_sim_com_FK_heur_method_dispatcher 00000001800607c0 f   c21_Tetraedro_model_sem_sim_com_FK_heur.obj
 0001:0006b6f0       sf_process_check_sum_call  000000018006c6f0 f   Tetraedro_model_sem_sim_com_FK_heur_sfun_registry.obj
 0001:0006b740       sf_process_autoinheritance_call 000000018006c740 f   Tetraedro_model_sem_sim_com_FK_heur_sfun_registry.obj
 0001:0006b8e0       sf_process_get_third_party_uses_info_call 000000018006c8e0 f   Tetraedro_model_sem_sim_com_FK_heur_sfun_registry.obj
 0001:0006ba80       sf_process_get_eml_resolved_functions_info_call 000000018006ca80 f   Tetraedro_model_sem_sim_com_FK_heur_sfun_registry.obj
 0001:0006bc00       sf_mex_unlock_call         000000018006cc00 f   Tetraedro_model_sem_sim_com_FK_heur_sfun_registry.obj
 0001:0006bcb0       sf_machine_global_initializer_called 000000018006ccb0 f   Tetraedro_model_sem_sim_com_FK_heur_sfun_registry.obj
 0001:0006bce0       sf_machine_global_method_dispatcher 000000018006cce0 f   Tetraedro_model_sem_sim_com_FK_heur_sfun_registry.obj
 0001:0006bd40       sf_machine_global_terminator 000000018006cd40 f   Tetraedro_model_sem_sim_com_FK_heur_sfun_registry.obj
 0001:0006bd90       sf_register_machine_exported_symbols 000000018006cd90 f   Tetraedro_model_sem_sim_com_FK_heur_sfun_registry.obj
 0001:0006bdb0       callCustomFcn              000000018006cdb0 f   Tetraedro_model_sem_sim_com_FK_heur_sfun_registry.obj
 0001:0006bdc0       sf_machine_global_initializer 000000018006cdc0 f   Tetraedro_model_sem_sim_com_FK_heur_sfun_registry.obj
 0001:0006be40       _ssSetStateAbsTol          000000018006ce40 f   Tetraedro_model_sem_sim_com_FK_heur_sfun_registry.obj
 0001:0006bf20       _ssGetAbsTol               000000018006cf20 f   Tetraedro_model_sem_sim_com_FK_heur_sfun_registry.obj
 0001:0006bf90       _ssSetInputPortMatrixDimensions 000000018006cf90 f   Tetraedro_model_sem_sim_com_FK_heur_sfun_registry.obj
 0001:0006c0a0       _ssSetOutputPortMatrixDimensions 000000018006d0a0 f   Tetraedro_model_sem_sim_com_FK_heur_sfun_registry.obj
 0001:0006c1b0       _ssSetInputPortVectorDimension 000000018006d1b0 f   Tetraedro_model_sem_sim_com_FK_heur_sfun_registry.obj
 0001:0006c270       _ssSetOutputPortVectorDimension 000000018006d270 f   Tetraedro_model_sem_sim_com_FK_heur_sfun_registry.obj
 0001:0006c330       ssIsRunTimeParamTunable    000000018006d330 f   Tetraedro_model_sem_sim_com_FK_heur_sfun_registry.obj
 0001:0006c3a0       ssGetSFuncBlockHandle      000000018006d3a0 f   Tetraedro_model_sem_sim_com_FK_heur_sfun_registry.obj
 0001:0006c410       _ssGetCurrentInputPortWidth 000000018006d410 f   Tetraedro_model_sem_sim_com_FK_heur_sfun_registry.obj
 0001:0006c530       _ssGetCurrentOutputPortWidth 000000018006d530 f   Tetraedro_model_sem_sim_com_FK_heur_sfun_registry.obj
 0001:0006c650       _ssGetCallSystemNumFcnCallDestinations 000000018006d650 f   Tetraedro_model_sem_sim_com_FK_heur_sfun_registry.obj
 0001:0006c6c0       ssWarning                  000000018006d6c0 f   Tetraedro_model_sem_sim_com_FK_heur_sfun_registry.obj
 0001:0006c7a0       ssGetIsZeroCrossControlDisabled 000000018006d7a0 f   Tetraedro_model_sem_sim_com_FK_heur_sfun_registry.obj
 0001:0006c810       ssSetIsInputPortUsedForContZcSignal 000000018006d810 f   Tetraedro_model_sem_sim_com_FK_heur_sfun_registry.obj
 0001:0006c880       ssSetZcSignalIsZcElementDisc 000000018006d880 f   Tetraedro_model_sem_sim_com_FK_heur_sfun_registry.obj
 0001:0006c910       ssSetZcSignalName          000000018006d910 f   Tetraedro_model_sem_sim_com_FK_heur_sfun_registry.obj
 0001:0006c980       ssSetZcSignalWidth         000000018006d980 f   Tetraedro_model_sem_sim_com_FK_heur_sfun_registry.obj
 0001:0006c9f0       ssSetZcSignalZcEventType   000000018006d9f0 f   Tetraedro_model_sem_sim_com_FK_heur_sfun_registry.obj
 0001:0006ca60       ssSetZcSignalType          000000018006da60 f   Tetraedro_model_sem_sim_com_FK_heur_sfun_registry.obj
 0001:0006cad0       ssSetZcSignalZcTol         000000018006dad0 f   Tetraedro_model_sem_sim_com_FK_heur_sfun_registry.obj
 0001:0006cb40       ssSetZcSignalNeedsEventNotification 000000018006db40 f   Tetraedro_model_sem_sim_com_FK_heur_sfun_registry.obj
 0001:0006cbb0       ssCreateAndAddZcSignalInfo 000000018006dbb0 f   Tetraedro_model_sem_sim_com_FK_heur_sfun_registry.obj
 0001:0006cc20       ssCloneAndAddZcSignalInfo  000000018006dc20 f   Tetraedro_model_sem_sim_com_FK_heur_sfun_registry.obj
 0001:0006cc90       ssGetNumZcSignals          000000018006dc90 f   Tetraedro_model_sem_sim_com_FK_heur_sfun_registry.obj
 0001:0006cd00       ssGetZcSignalVector        000000018006dd00 f   Tetraedro_model_sem_sim_com_FK_heur_sfun_registry.obj
 0001:0006cd70       ssGetZcSignalZcEvents      000000018006dd70 f   Tetraedro_model_sem_sim_com_FK_heur_sfun_registry.obj
 0001:0006cde0       ssGetZcSignalName          000000018006dde0 f   Tetraedro_model_sem_sim_com_FK_heur_sfun_registry.obj
 0001:0006ce50       ssGetZcSignalWidth         000000018006de50 f   Tetraedro_model_sem_sim_com_FK_heur_sfun_registry.obj
 0001:0006cec0       ssGetZcSignalZcEventType   000000018006dec0 f   Tetraedro_model_sem_sim_com_FK_heur_sfun_registry.obj
 0001:0006cf30       ssGetZcSignalType          000000018006df30 f   Tetraedro_model_sem_sim_com_FK_heur_sfun_registry.obj
 0001:0006cfa0       ssGetZcSignalZcTol         000000018006dfa0 f   Tetraedro_model_sem_sim_com_FK_heur_sfun_registry.obj
 0001:0006d020       ssGetZcSignalNeedsEventNotification 000000018006e020 f   Tetraedro_model_sem_sim_com_FK_heur_sfun_registry.obj
 0001:0006d090       ssGetZcSignalIsZcElementDisc 000000018006e090 f   Tetraedro_model_sem_sim_com_FK_heur_sfun_registry.obj
 0001:0006d110       ssGetIsInputPortElementContinuous 000000018006e110 f   Tetraedro_model_sem_sim_com_FK_heur_sfun_registry.obj
 0001:0006d190       _ssGetInputPortSignalPtrsFcn 000000018006e190 f   Tetraedro_model_sem_sim_com_FK_heur_sfun_registry.obj
 0001:0006d400       _ssGetInputPortSignalFcn   000000018006e400 f   Tetraedro_model_sem_sim_com_FK_heur_sfun_registry.obj
 0001:0006d5d0       _ssSetInputPortDirectFeedThroughFcn 000000018006e5d0 f   Tetraedro_model_sem_sim_com_FK_heur_sfun_registry.obj
 0001:0006d720       _ssSetInputPortReusableFcn 000000018006e720 f   Tetraedro_model_sem_sim_com_FK_heur_sfun_registry.obj
 0001:0006d810       _ssSetOutputPortReusableFcn 000000018006e810 f   Tetraedro_model_sem_sim_com_FK_heur_sfun_registry.obj
 0001:0006d8f0       ssGetDTypeIdFromMxArray    000000018006e8f0 f   Tetraedro_model_sem_sim_com_FK_heur_sfun_registry.obj
 0001:0006da10       ssWriteRTWStr              000000018006ea10 f   Tetraedro_model_sem_sim_com_FK_heur_sfun_registry.obj
 0001:0006da70       ssWriteRTWMxVectParam      000000018006ea70 f   Tetraedro_model_sem_sim_com_FK_heur_sfun_registry.obj
 0001:0006dad0       ssWriteRTWMx2dMatParam     000000018006ead0 f   Tetraedro_model_sem_sim_com_FK_heur_sfun_registry.obj
 0001:0006db50       ssWriteRTWNameValuePair    000000018006eb50 f   Tetraedro_model_sem_sim_com_FK_heur_sfun_registry.obj
 0001:0006e030       ssWriteRTWParameters       000000018006f030 f   Tetraedro_model_sem_sim_com_FK_heur_sfun_registry.obj
 0001:0006e630       ssWriteRTWParamSettings    000000018006f630 f   Tetraedro_model_sem_sim_com_FK_heur_sfun_registry.obj
 0001:0006ed00       ssWriteRTWWorkVect         000000018006fd00 f   Tetraedro_model_sem_sim_com_FK_heur_sfun_registry.obj
 0001:0006f200       mexFunction                0000000180070200 f   Tetraedro_model_sem_sim_com_FK_heur_sfun_registry.obj
 0001:00070f70       ProcessMexSfunctionEveryCall 0000000180071f70 f   Tetraedro_model_sem_sim_com_FK_heur_sfun_registry.obj
 0001:000710e0       Tetraedro_model_sem_sim_com_FK_heur_initializer 00000001800720e0 f   Tetraedro_model_sem_sim_com_FK_heur_sfun.obj
 0001:000710f0       Tetraedro_model_sem_sim_com_FK_heur_terminator 00000001800720f0 f   Tetraedro_model_sem_sim_com_FK_heur_sfun.obj
 0001:00071100       sf_Tetraedro_model_sem_sim_com_FK_heur_method_dispatcher 0000000180072100 f   Tetraedro_model_sem_sim_com_FK_heur_sfun.obj
 0001:00071360       sf_Tetraedro_model_sem_sim_com_FK_heur_process_check_sum_call 0000000180072360 f   Tetraedro_model_sem_sim_com_FK_heur_sfun.obj
 0001:000718d0       sf_Tetraedro_model_sem_sim_com_FK_heur_autoinheritance_info 00000001800728d0 f   Tetraedro_model_sem_sim_com_FK_heur_sfun.obj
 0001:00071f30       sf_Tetraedro_model_sem_sim_com_FK_heur_get_eml_resolved_functions_info 0000000180072f30 f   Tetraedro_model_sem_sim_com_FK_heur_sfun.obj
 0001:00072450       sf_Tetraedro_model_sem_sim_com_FK_heur_third_party_uses_info 0000000180073450 f   Tetraedro_model_sem_sim_com_FK_heur_sfun.obj
 0001:000728d0       Tetraedro_model_sem_sim_com_FK_heur_debug_initialize 00000001800738d0 f   Tetraedro_model_sem_sim_com_FK_heur_sfun.obj
 0001:00072950       Tetraedro_model_sem_sim_com_FK_heur_register_exported_symbols 0000000180073950 f   Tetraedro_model_sem_sim_com_FK_heur_sfun.obj
 0001:00072960       load_Tetraedro_model_sem_sim_com_FK_heur_optimization_info 0000000180073960 f   Tetraedro_model_sem_sim_com_FK_heur_sfun.obj
 0001:000729b0       unload_Tetraedro_model_sem_sim_com_FK_heur_optimization_info 00000001800739b0 f   Tetraedro_model_sem_sim_com_FK_heur_sfun.obj
 0001:00072ad0       sf_mex_mx_is_numeric       0000000180073ad0 f   sfc_mex:sfc_mex.obj
 0001:00072b10       strcmp_ignore_ws           0000000180073b10 f   sfc_mex:sfc_mex.obj
 0001:00072c50       sf_mex_duplicatearraysafe  0000000180073c50 f   sfc_mex:sfc_mex.obj
 0001:00072db0       sf_set_error_debugger_context_message_fcn 0000000180073db0 f   sfc_mex:sfc_mex.obj
 0001:00072dc0       sf_set_debugger_matlab_error_fcn 0000000180073dc0 f   sfc_mex:sfc_mex.obj
 0001:00072e00       sf_set_error_prefix_string 0000000180073e00 f   sfc_mex:sfc_mex.obj
 0001:00072e30       sf_get_error_prefix_string 0000000180073e30 f   sfc_mex:sfc_mex.obj
 0001:00072e40       sf_mex_enter_parallel_region 0000000180073e40 f   sfc_mex:sfc_mex.obj
 0001:00072e50       sf_mex_exit_parallel_region 0000000180073e50 f   sfc_mex:sfc_mex.obj
 0001:00072e60       sf_get_current_jmp_buf_ptr 0000000180073e60 f   sfc_mex:sfc_mex.obj
 0001:00072e70       sf_set_current_jmp_buf_ptr 0000000180073e70 f   sfc_mex:sfc_mex.obj
 0001:00072e80       sf_mex_set_halt_simulation 0000000180073e80 f   sfc_mex:sfc_mex.obj
 0001:00072e90       sf_mex_get_halt_simulation 0000000180073e90 f   sfc_mex:sfc_mex.obj
 0001:00072ea0       sf_mex_clear_error_message 0000000180073ea0 f   sfc_mex:sfc_mex.obj
 0001:00072ec0       sf_mex_get_error_message_for_read 0000000180073ec0 f   sfc_mex:sfc_mex.obj
 0001:00072ed0       sf_mex_get_error_message_buffer_length 0000000180073ed0 f   sfc_mex:sfc_mex.obj
 0001:00072fb0       sf_mex_warning_message     0000000180073fb0 f   sfc_mex:sfc_mex.obj
 0001:00073020       sf_mex_v_errbuf_createf    0000000180074020 f   sfc_mex:sfc_mex.obj
 0001:00073030       sf_mex_errbuf_createf      0000000180074030 f   sfc_mex:sfc_mex.obj
 0001:00073060       sf_mex_v_errbuf_catf       0000000180074060 f   sfc_mex:sfc_mex.obj
 0001:000730a0       sf_mex_errbuf_catf         00000001800740a0 f   sfc_mex:sfc_mex.obj
 0001:000730f0       sf_mex_errbuf_copy         00000001800740f0 f   sfc_mex:sfc_mex.obj
 0001:00073100       sf_mex_errbuf_clear        0000000180074100 f   sfc_mex:sfc_mex.obj
 0001:00073110       sf_mex_errbuf_isempty      0000000180074110 f   sfc_mex:sfc_mex.obj
 0001:00073210       sf_mex_set_error_status    0000000180074210 f   sfc_mex:sfc_mex.obj
 0001:00073260       sf_mex_error_direct_call   0000000180074260 f   sfc_mex:sfc_mex.obj
 0001:00073280       sf_mex_error_message_no_long_jump 0000000180074280 f   sfc_mex:sfc_mex.obj
 0001:000732a0       sf_mex_long_jump_on_error  00000001800742a0 f   sfc_mex:sfc_mex.obj
 0001:000732d0       sf_mex_call_matlab         00000001800742d0 f   sfc_mex:sfc_mex.obj
 0001:000733f0       sf_mex_check_builtin       00000001800743f0 f   sfc_mex:sfc_mex.obj
 0001:00073490       sf_mex_check_builtin_vs    0000000180074490 f   sfc_mex:sfc_mex.obj
 0001:00073550       sf_mex_check_enum          0000000180074550 f   sfc_mex:sfc_mex.obj
 0001:000735d0       sf_mex_create_enum         00000001800745d0 f   sfc_mex:sfc_mex.obj
 0001:00073640       sf_mex_get_enum_element    0000000180074640 f   sfc_mex:sfc_mex.obj
 0001:00073650       sf_mex_createcellarray     0000000180074650 f   sfc_mex:sfc_mex.obj
 0001:00073660       sf_mex_setcell             0000000180074660 f   sfc_mex:sfc_mex.obj
 0001:00073670       sf_mex_getcell             0000000180074670 f   sfc_mex:sfc_mex.obj
 0001:00073680       sf_mex_dup                 0000000180074680 f   sfc_mex:sfc_mex.obj
 0001:000736a0       sf_mex_assign              00000001800746a0 f   sfc_mex:sfc_mex.obj
 0001:00073720       sf_mex_destroy             0000000180074720 f   sfc_mex:sfc_mex.obj
 0001:00073750       mx_array_has_fi_type       0000000180074750 f   sfc_mex:sfc_mex.obj
 0001:00073780       sf_mex_convert_from_fi     0000000180074780 f   sfc_mex:sfc_mex.obj
 0001:000738b0       sf_mex_convert_to_double   00000001800748b0 f   sfc_mex:sfc_mex.obj
 0001:000739d0       sf_mex_import_fi_vs        00000001800749d0 f   sfc_mex:sfc_mex.obj
 0001:00073c00       sf_matrix_matrix_index_ok  0000000180074c00 f   sfc_mex:sfc_mex.obj
 0001:00073c90       sf_vector_vector_index_ok  0000000180074c90 f   sfc_mex:sfc_mex.obj
 0001:00073cc0       ssGetCurrentInputPortDimensions_wrapper 0000000180074cc0 f   sfc_mex:sfc_mex.obj
 0001:00073ce0       ssGetCurrentOutputPortDimensions_wrapper 0000000180074ce0 f   sfc_mex:sfc_mex.obj
 0001:00073d00       sf_mex_emlrt_context_is_debug_mode 0000000180074d00 f   sfc_mex:sfc_mex.obj
 0001:00073d10       sf_mex_emlrt_context_set_debug_mode 0000000180074d10 f   sfc_mex:sfc_mex.obj
 0001:00073d20       sf_mex_emlrtNameCapturePostProcessR2012a 0000000180074d20 f   sfc_mex:sfc_mex.obj
 0001:00073d90       sf_clear_error_manager_info 0000000180074d90 f   sfc_mex:sfc_mex.obj
 0001:00073df0       sf_mex_stop_simulation_abruptly_wo_error 0000000180074df0 f   sfc_mex:sfc_mex.obj
 0001:00073e30       sf_mex_error_message       0000000180074e30 f   sfc_mex:sfc_mex.obj
 0001:00073ea0       sf_react_to_error_in_matlab_call 0000000180074ea0 f   sfc_mex:sfc_mex.obj
 0001:00073ed0       sf_mex_addfield            0000000180074ed0 f   sfc_mex:sfc_mex.obj
 0001:00073f70       sf_mex_getfield            0000000180074f70 f   sfc_mex:sfc_mex.obj
 0001:00074270       sf_mex_check_class         0000000180075270 f   sfc_mex:sfc_mex.obj
 0001:00074310       sf_mex_is_real             0000000180075310 f   sfc_mex:sfc_mex.obj
 0001:00074780       sf_mex_decode_encoded_mx_struct_array 0000000180075780 f   sfc_mex:sfc_mex.obj
 0001:00074a70       sf_mex_lw_bounds_check     0000000180075a70 f   sfc_mex:sfc_mex.obj
 0001:00074aa0       sf_mex_lw_size_eq_check_1d 0000000180075aa0 f   sfc_mex:sfc_mex.obj
 0001:00074ac0       sf_mex_lw_size_eq_check_nd 0000000180075ac0 f   sfc_mex:sfc_mex.obj
 0001:00074ca0       sf_mex_lw_dim_size_eq_check 0000000180075ca0 f   sfc_mex:sfc_mex.obj
 0001:00074cd0       sf_mex_lw_dim_size_geq_check 0000000180075cd0 f   sfc_mex:sfc_mex.obj
 0001:00074d00       sf_mex_lw_sub_assign_size_check_nd 0000000180075d00 f   sfc_mex:sfc_mex.obj
 0001:00074ed0       sf_mex_lw_runtime_error_msgid 0000000180075ed0 f   sfc_mex:sfc_mex.obj
 0001:00074fc0       sf_mex_lw_matrix_matrix_index_check 0000000180075fc0 f   sfc_mex:sfc_mex.obj
 0001:00074fe0       sf_mex_lw_vector_vector_index_check 0000000180075fe0 f   sfc_mex:sfc_mex.obj
 0001:00075020       sf_mex_lw_for_loop_vector_check 0000000180076020 f   sfc_mex:sfc_mex.obj
 0001:000750b0       sf_mex_lw_non_negative_check 00000001800760b0 f   sfc_mex:sfc_mex.obj
 0001:000750f0       sf_mex_overflow_error      00000001800760f0 f   sfc_mex:sfc_mex.obj
 0001:00075100       sf_mex_dividebyzero_error  0000000180076100 f   sfc_mex:sfc_mex.obj
 0001:00075110       sf_mex_unsafe_enum_error   0000000180076110 f   sfc_mex:sfc_mex.obj
 0001:00075120       sf_emlrtErrHandler         0000000180076120 f   sfc_mex:sfc_mex.obj
 0001:00075200       sf_mex_size_one_check      0000000180076200 f   sfc_mex:sfc_mex.obj
 0001:00075220       sf_mex_printf              0000000180076220 f   sfc_mex:sfc_mex.obj
 0001:000753f0       sf_mex_check_size          00000001800763f0 f   sfc_mex:sfc_mex.obj
 0001:00075690       sf_mex_check_struct        0000000180076690 f   sfc_mex:sfc_mex.obj
 0001:000758f0       sf_mex_check_struct_vs     00000001800768f0 f   sfc_mex:sfc_mex.obj
 0001:00075980       sf_mex_check_fi            0000000180076980 f   sfc_mex:sfc_mex.obj
 0001:00075a80       sf_mex_check_fi_vs         0000000180076a80 f   sfc_mex:sfc_mex.obj
 0001:00075b20       sf_echo_expression         0000000180076b20 f   sfc_mex:sfc_mex.obj
 0001:00075b80       sf_assertion_failed        0000000180076b80 f   sfc_mex:sfc_mex.obj
 0001:00075e60       sf_mex_evalin              0000000180076e60 f   sfc_mex:sfc_mex.obj
 0001:000760d0       sf_mex_export              00000001800770d0 f   sfc_mex:sfc_mex.obj
 0001:00076190       sf_mex_get_ml_var_no_error 0000000180077190 f   sfc_mex:sfc_mex.obj
 0001:00076330       sf_mex_get_ml_var          0000000180077330 f   sfc_mex:sfc_mex.obj
 0001:000767c0       ml_set_element_value_in_array 00000001800777c0 f   sfc_mex:sfc_mex.obj
 0001:00077880       sf_mex_call_impl           0000000180078880 f   sfc_mex:sfc_mex.obj
 0001:00077ca0       sf_mex_call_debug          0000000180078ca0 f   sfc_mex:sfc_mex.obj
 0001:00077cd0       sf_mex_call                0000000180078cd0 f   sfc_mex:sfc_mex.obj
 0001:00078320       sf_mex_createstruct        0000000180079320 f   sfc_mex:sfc_mex.obj
 0001:00078430       sf_mex_createstructarray   0000000180079430 f   sfc_mex:sfc_mex.obj
 0001:000784b0       sf_mex_get_mx_datatype_from_sf_datatype 00000001800794b0 f   sfc_mex:sfc_mex.obj
 0001:000787c0       sf_mex_ml_var_sub          00000001800797c0 f   sfc_mex:sfc_mex.obj
 0001:000789a0       sf_mex_ml_var_subsasgn     00000001800799a0 f   sfc_mex:sfc_mex.obj
 0001:00078da0       sf_mex_sub                 0000000180079da0 f   sfc_mex:sfc_mex.obj
 0001:00078fb0       sf_mex_subsasgn            0000000180079fb0 f   sfc_mex:sfc_mex.obj
 0001:000794c0       sf_mex_create              000000018007a4c0 f   sfc_mex:sfc_mex.obj
 0001:00079e60       sf_mex_import_named        000000018007ae60 f   sfc_mex:sfc_mex.obj
 0001:00079ec0       sf_mex_import              000000018007aec0 f   sfc_mex:sfc_mex.obj
 0001:00079f10       sf_mex_import_vs           000000018007af10 f   sfc_mex:sfc_mex.obj
 0001:0007a020       sf_mex_lower_fixpt_mx_array 000000018007b020 f   sfc_mex:sfc_mex.obj
 0001:0007a320       sf_send_message_wrapper    000000018007b320 f   sfc_mex:sfc_sf.obj
 0001:0007a350       sf_receive_message_wrapper 000000018007b350 f   sfc_mex:sfc_sf.obj
 0001:0007a390       sf_check_out_message_wrapper 000000018007b390 f   sfc_mex:sfc_sf.obj
 0001:0007a3d0       sf_check_in_message_wrapper 000000018007b3d0 f   sfc_mex:sfc_sf.obj
 0001:0007a410       sf_no_message_wrapper      000000018007b410 f   sfc_mex:sfc_sf.obj
 0001:0007a7a0       sim_mode_is_rtw_gen        000000018007b7a0 f   sfc_mex:sfc_sf.obj
 0001:0007a7d0       sim_mode_is_external       000000018007b7d0 f   sfc_mex:sfc_sf.obj
 0001:0007a7e0       sim_mode_is_modelref_sim   000000018007b7e0 f   sfc_mex:sfc_sf.obj
 0001:0007a800       mdlInitializeSizes         000000018007b800 f   sfc_mex:sfc_sf.obj
 0001:0007a820       mdlInitializeSampleTimes   000000018007b820 f   sfc_mex:sfc_sf.obj
 0001:0007a860       mdlZeroCrossings           000000018007b860 f   sfc_mex:sfc_sf.obj
 0001:0007a950       mdlDerivatives             000000018007b950 f   sfc_mex:sfc_sf.obj
 0001:0007aa10       mdl_initialize_conditions_processing 000000018007ba10 f   sfc_mex:sfc_sf.obj
 0001:0007aa40       mdlInitializeConditions    000000018007ba40 f   sfc_mex:sfc_sf.obj
 0001:0007ab00       mdlGetSimState             000000018007bb00 f   sfc_mex:sfc_sf.obj
 0001:0007ab10       mdlSetSimState             000000018007bb10 f   sfc_mex:sfc_sf.obj
 0001:0007ab20       mdl_ext_mode_exec_processing 000000018007bb20 f   sfc_mex:sfc_sf.obj
 0001:0007ab40       mdlExtModeExec             000000018007bb40 f   sfc_mex:sfc_sf.obj
 0001:0007ace0       mdlTerminate               000000018007bce0 f   sfc_mex:sfc_sf.obj
 0001:0007ad50       mdlRTW                     000000018007bd50 f   sfc_mex:sfc_sf.obj
 0001:0007ad80       mdlSetWorkWidths           000000018007bd80 f   sfc_mex:sfc_sf.obj
 0001:0007ad90       mdlProcessParameters       000000018007bd90 f   sfc_mex:sfc_sf.obj
 0001:0007ada0       mdl_start_processing       000000018007bda0 f   sfc_mex:sfc_sf.obj
 0001:0007ae00       mdlStart                   000000018007be00 f   sfc_mex:sfc_sf.obj
 0001:0007af10       mdlEnable                  000000018007bf10 f   sfc_mex:sfc_sf.obj
 0001:0007aff0       mdlDisable                 000000018007bff0 f   sfc_mex:sfc_sf.obj
 0001:0007b0b0       sf_get_chart_instance_ptr  000000018007c0b0 f   sfc_mex:sfc_sf.obj
 0001:0007b0d0       sf_load_rtw_optimization_info 000000018007c0d0 f   sfc_mex:sfc_sf.obj
 0001:0007b1a0       sf_update_buildInfo        000000018007c1a0 f   sfc_mex:sfc_sf.obj
 0001:0007b2a0       sf_rtw_info_uint_prop      000000018007c2a0 f   sfc_mex:sfc_sf.obj
 0001:0007b3e0       sf_is_chart_inlinable      000000018007c3e0 f   sfc_mex:sfc_sf.obj
 0001:0007b400       sf_mark_output_events_with_multiple_callers 000000018007c400 f   sfc_mex:sfc_sf.obj
 0001:0007b590       sf_mark_chart_reusable_outputs 000000018007c590 f   sfc_mex:sfc_sf.obj
 0001:0007b7f0       sf_mark_chart_expressionable_inputs 000000018007c7f0 f   sfc_mex:sfc_sf.obj
 0001:0007ba50       sf_get_subchart_simstruct  000000018007ca50 f   sfc_mex:sfc_sf.obj
 0001:0007baa0       sf_get_fixpt_data_type_id  000000018007caa0 f   sfc_mex:sfc_sf.obj
 0001:0007bae0       sf_get_enum_data_type_id   000000018007cae0 f   sfc_mex:sfc_sf.obj
 0001:0007bb20       sf_get_param_data_type_id  000000018007cb20 f   sfc_mex:sfc_sf.obj
 0001:0007bb50       sf_mex_listen_for_ctrl_c_force 000000018007cb50 f   sfc_mex:sfc_sf.obj
 0001:0007bc60       sf_mex_draw_now            000000018007cc60 f   sfc_mex:sfc_sf.obj
 0001:0007bca0       sf_mex_set_debugger_sim_status_listener_fcn 000000018007cca0 f   sfc_mex:sfc_sf.obj
 0001:0007bcb0       sf_mex_listen_for_ctrl_c   000000018007ccb0 f   sfc_mex:sfc_sf.obj
 0001:0007bd50       sf_mex_get_sfun_param      000000018007cd50 f   sfc_mex:sfc_sf.obj
 0001:0007bda0       sf_get_runtime_param_data  000000018007cda0 f   sfc_mex:sfc_sf.obj
 0001:0007bde0       sf_call_output_fcn_call    000000018007cde0 f   sfc_mex:sfc_sf.obj
 0001:0007bf20       sf_call_output_fcn_enable  000000018007cf20 f   sfc_mex:sfc_sf.obj
 0001:0007bfb0       sf_call_output_fcn_disable 000000018007cfb0 f   sfc_mex:sfc_sf.obj
 0001:0007c040       sf_clear_rtw_identifier    000000018007d040 f   sfc_mex:sfc_sf.obj
 0001:0007c860       sf_set_encoded_dwork_info  000000018007d860 f   sfc_mex:sfc_sf.obj
 0001:0007c8b0       sf_get_dwork_info_from_mat_file 000000018007d8b0 f   sfc_mex:sfc_sf.obj
 0001:0007ca70       sf_set_rtw_dwork_info      000000018007da70 f   sfc_mex:sfc_sf.obj
 0001:0007cbe0       mdlOutputs                 000000018007dbe0 f   sfc_mex:sfc_sf.obj
 0001:0007cd00       sf_debug_chart_instance_initialized_quick 000000018007dd00 f   sfc_debug:sfcdebug.obj
 0001:0007cd80       sf_debug_disp              000000018007dd80 f   sfc_debug:sfcdebug.obj
 0001:0007d050       sf_debug_data_runtime_size_mismatch_error_check 000000018007e050 f   sfc_debug:sfcdebug.obj
 0001:0007d100       sf_debug_try_loading_machine 000000018007e100 f   sfc_debug:sfcdebug.obj
 0001:0007d200       sf_debug_reset_current_state_configuration 000000018007e200 f   sfc_debug:sfcdebug.obj
 0001:0007d280       sf_debug_store_current_state_configuration 000000018007e280 f   sfc_debug:sfcdebug.obj
 0001:0007d300       sf_debug_restore_previous_state_configuration 000000018007e300 f   sfc_debug:sfcdebug.obj
 0001:0007d380       sf_debug_restore_previous_state_configuration2 000000018007e380 f   sfc_debug:sfcdebug.obj
 0001:0007d400       sf_debug_get_event_scope   000000018007e400 f   sfc_debug:sfcdebug.obj
 0001:0007d570       use_debugger_step_animation 000000018007e570 f   sfc_debug:sfcdebug.obj
 0001:0007d590       sf_debug_get_script_id     000000018007e590 f   sfc_debug:sfcdebug.obj
 0001:0007d620       sf_debug_set_script_translation 000000018007e620 f   sfc_debug:sfcdebug.obj
 0001:0007d7a0       sf_debug_extract_message_post_receive_info 000000018007e7a0 f   sfc_debug:sfcdebug.obj
 0001:0007d960       sf_debug_get_current_machine_id 000000018007e960 f   sfc_debug:sfcdebug.obj
 0001:0007d980       sf_debug_get_current_optional_integer 000000018007e980 f   sfc_debug:sfcdebug.obj
 0001:0007d990       sf_debug_get_current_machine_number 000000018007e990 f   sfc_debug:sfcdebug.obj
 0001:0007d9b0       sf_debug_get_current_machine_name 000000018007e9b0 f   sfc_debug:sfcdebug.obj
 0001:0007d9d0       sf_debug_get_current_chart_id 000000018007e9d0 f   sfc_debug:sfcdebug.obj
 0001:0007da10       sf_debug_get_current_chart_number 000000018007ea10 f   sfc_debug:sfcdebug.obj
 0001:0007da20       sf_debug_get_current_instance_number 000000018007ea20 f   sfc_debug:sfcdebug.obj
 0001:0007da30       sf_debug_get_current_is_minor_time_step 000000018007ea30 f   sfc_debug:sfcdebug.obj
 0001:0007dab0       sf_debug_get_current_object_type 000000018007eab0 f   sfc_debug:sfcdebug.obj
 0001:0007dac0       sf_debug_get_current_instance_handle 000000018007eac0 f   sfc_debug:sfcdebug.obj
 0001:0007db20       sf_debug_get_current_event_type 000000018007eb20 f   sfc_debug:sfcdebug.obj
 0001:0007db30       sf_debug_get_current_object_id 000000018007eb30 f   sfc_debug:sfcdebug.obj
 0001:0007db70       sf_debug_get_current_active_event_type 000000018007eb70 f   sfc_debug:sfcdebug.obj
 0001:0007db80       sf_debug_get_current_active_event_id 000000018007eb80 f   sfc_debug:sfcdebug.obj
 0001:0007dbc0       sf_debug_get_current_tag_type 000000018007ebc0 f   sfc_debug:sfcdebug.obj
 0001:0007dbd0       sf_debug_get_current_simulation_time 000000018007ebd0 f   sfc_debug:sfcdebug.obj
 0001:0007dbe0       sf_debug_get_current_coverage_percentage 000000018007ebe0 f   sfc_debug:sfcdebug.obj
 0001:0007dbf0       sf_debug_current_statement_context 000000018007ebf0 f   sfc_debug:sfcdebug.obj
 0001:0007dc70       sf_debug_get_current_statement_info 000000018007ec70 f   sfc_debug:sfcdebug.obj
 0001:0007de10       sf_debug_terminate_instance 000000018007ee10 f   sfc_debug:sfcdebug.obj
 0001:0007e130       sf_debug_assertion_failed  000000018007f130 f   sfc_debug:sfcdebug.obj
 0001:0007e300       sf_debug_create_debug_instance_struct 000000018007f300 f   sfc_debug:sfcdebug.obj
 0001:0007e350       sf_debug_set_number_of_data_with_change_event_for_machine 000000018007f350 f   sfc_debug:sfcdebug.obj
 0001:0007e3a0       sf_debug_set_machine_event_thresholds 000000018007f3a0 f   sfc_debug:sfcdebug.obj
 0001:0007e3c0       sf_debug_set_machine_event_scope 000000018007f3c0 f   sfc_debug:sfcdebug.obj
 0001:0007e410       sf_debug_set_machine_data_thresholds 000000018007f410 f   sfc_debug:sfcdebug.obj
 0001:0007e460       sf_debug_set_machine_data_scope 000000018007f460 f   sfc_debug:sfcdebug.obj
 0001:0007e500       sf_debug_set_machine_data_name 000000018007f500 f   sfc_debug:sfcdebug.obj
 0001:0007e5b0       sf_debug_set_machine_data_size 000000018007f5b0 f   sfc_debug:sfcdebug.obj
 0001:0007e700       sf_debug_set_machine_data_type 000000018007f700 f   sfc_debug:sfcdebug.obj
 0001:0007e870       sf_debug_get_chart_data_number 000000018007f870 f   sfc_debug:sfcdebug.obj
 0001:0007e890       sf_debug_get_chart_event_number 000000018007f890 f   sfc_debug:sfcdebug.obj
 0001:0007e8b0       sf_debug_set_chart_state_info 000000018007f8b0 f   sfc_debug:sfcdebug.obj
 0001:0007e940       sf_debug_set_chart_decomposition 000000018007f940 f   sfc_debug:sfcdebug.obj
 0001:0007e9b0       sf_debug_set_chart_substate_count 000000018007f9b0 f   sfc_debug:sfcdebug.obj
 0001:0007ea90       sf_debug_set_chart_substate_index 000000018007fa90 f   sfc_debug:sfcdebug.obj
 0001:0007eb10       sf_debug_set_chart_state_substate_count 000000018007fb10 f   sfc_debug:sfcdebug.obj
 0001:0007ec30       sf_debug_set_chart_state_substate_index 000000018007fc30 f   sfc_debug:sfcdebug.obj
 0001:0007ecc0       sf_debug_set_number_of_data_with_change_event_for_chart 000000018007fcc0 f   sfc_debug:sfcdebug.obj
 0001:0007ed50       sf_debug_set_number_of_states_with_entry_event_for_chart 000000018007fd50 f   sfc_debug:sfcdebug.obj
 0001:0007edd0       sf_debug_set_number_of_states_with_exit_event_for_chart 000000018007fdd0 f   sfc_debug:sfcdebug.obj
 0001:0007ee50       sf_debug_set_chart_disable_implicit_casting 000000018007fe50 f   sfc_debug:sfcdebug.obj
 0001:0007eec0       sf_debug_set_chart_event_thresholds 000000018007fec0 f   sfc_debug:sfcdebug.obj
 0001:0007ef40       sf_debug_set_chart_data_compiled_props 000000018007ff40 f   sfc_debug:sfcdebug.obj
 0001:0007f280       sf_debug_set_chart_data_props 0000000180080280 f   sfc_debug:sfcdebug.obj
 0001:0007f5a0       sf_debug_check_fi_license  00000001800805a0 f   sfc_debug:sfcdebug.obj
 0001:0007f760       sf_debug_symbol_scope_push 0000000180080760 f   sfc_debug:sfcdebug.obj
 0001:0007f7a0       sf_debug_symbol_scope_push_eml 00000001800807a0 f   sfc_debug:sfcdebug.obj
 0001:0007f7f0       sf_debug_symbol_scope_pop  00000001800807f0 f   sfc_debug:sfcdebug.obj
 0001:0007f830       sf_debug_symbol_scope_add_importable 0000000180080830 f   sfc_debug:sfcdebug.obj
 0001:0007f8b0       sf_debug_symbol_scope_add  00000001800808b0 f   sfc_debug:sfcdebug.obj
 0001:0007f930       sf_debug_symbol_scope_add_dyn_importable 0000000180080930 f   sfc_debug:sfcdebug.obj
 0001:0007f9f0       sf_debug_symbol_scope_add_dyn 00000001800809f0 f   sfc_debug:sfcdebug.obj
 0001:0007fa30       sf_debug_symbol_scope_add_eml_importable 0000000180080a30 f   sfc_debug:sfcdebug.obj
 0001:0007fa70       sf_debug_symbol_scope_add_eml 0000000180080a70 f   sfc_debug:sfcdebug.obj
 0001:0007fab0       sf_debug_symbol_scope_add_eml_dyn_importable 0000000180080ab0 f   sfc_debug:sfcdebug.obj
 0001:0007fb10       sf_debug_symbol_scope_add_eml_dyn 0000000180080b10 f   sfc_debug:sfcdebug.obj
 0001:0007fb70       sf_debug_symbol_switch     0000000180080b70 f   sfc_debug:sfcdebug.obj
 0001:0007fb90       sf_debug_symbol_scope_add_verbose 0000000180080b90 f   sfc_debug:sfcdebug.obj
 0001:0007fc60       sf_debug_set_machine_data_value_ptr 0000000180080c60 f   sfc_debug:sfcdebug.obj
 0001:0007fca0       sf_debug_set_instance_data_value_ptr 0000000180080ca0 f   sfc_debug:sfcdebug.obj
 0001:0007fd70       sf_debug_unset_instance_data_value_ptr 0000000180080d70 f   sfc_debug:sfcdebug.obj
 0001:0007fe20       sf_debug_set_chart_event_scope 0000000180080e20 f   sfc_debug:sfcdebug.obj
 0001:0007fea0       sf_debug_set_chart_transition_coverage_maps 0000000180080ea0 f   sfc_debug:sfcdebug.obj
 0001:0007ffa0       sf_debug_set_chart_state_coverage_maps 0000000180080fa0 f   sfc_debug:sfcdebug.obj
 0001:00080070       sf_debug_set_instance_transition_coverage_weights 0000000180081070 f   sfc_debug:sfcdebug.obj
 0001:00080100       sf_debug_set_instance_state_coverage_weights 0000000180081100 f   sfc_debug:sfcdebug.obj
 0001:00080350       sf_debug_unload_machine    0000000180081350 f   sfc_debug:sfcdebug.obj
 0001:000803a0       sf_debug_load_machine      00000001800813a0 f   sfc_debug:sfcdebug.obj
 0001:000804b0       sf_debug_set_active_instance_in_data_dictionary 00000001800814b0 f   sfc_debug:sfcdebug.obj
 0001:00080690       sf_debug_set_active_instance 0000000180081690 f   sfc_debug:sfcdebug.obj
 0001:000807f0       sf_debug_chart_visiblity_change 00000001800817f0 f   sfc_debug:sfcdebug.obj
 0001:000808e0       sf_debug_select_chart      00000001800818e0 f   sfc_debug:sfcdebug.obj
 0001:00080a40       sf_debug_set_instance_cv_ids 0000000180081a40 f   sfc_debug:sfcdebug.obj
 0001:00080d70       sf_debug_select_charts     0000000180081d70 f   sfc_debug:sfcdebug.obj
 0001:00080f20       sf_debug_initialized       0000000180081f20 f   sfc_debug:sfcdebug.obj
 0001:00080f40       sf_debug_is_uninterruptible 0000000180081f40 f   sfc_debug:sfcdebug.obj
 0001:00080f70       sf_debug_initialize_debugger_gui 0000000180081f70 f   sfc_debug:sfcdebug.obj
 0001:00081350       sf_debug_resume            0000000180082350 f   sfc_debug:sfcdebug.obj
 0001:00081370       sf_debug_go                0000000180082370 f   sfc_debug:sfcdebug.obj
 0001:00081380       sf_debug_break             0000000180082380 f   sfc_debug:sfcdebug.obj
 0001:00081390       sf_debug_step_over         0000000180082390 f   sfc_debug:sfcdebug.obj
 0001:000813a0       sf_debug_step_out          00000001800823a0 f   sfc_debug:sfcdebug.obj
 0001:000813b0       sf_debug_set_disable_all_breakpoints 00000001800823b0 f   sfc_debug:sfcdebug.obj
 0001:000813c0       sf_debug_disable_all_breakpoints_and_go 00000001800823c0 f   sfc_debug:sfcdebug.obj
 0001:000813d0       sf_debug_break_on_chart_entry 00000001800823d0 f   sfc_debug:sfcdebug.obj
 0001:000813e0       sf_debug_break_on_event_broadcast 00000001800823e0 f   sfc_debug:sfcdebug.obj
 0001:000813f0       sf_debug_break_on_state_entry 00000001800823f0 f   sfc_debug:sfcdebug.obj
 0001:00081400       sf_debug_break_between_times 0000000180082400 f   sfc_debug:sfcdebug.obj
 0001:00081420       sf_debug_browse_data       0000000180082420 f   sfc_debug:sfcdebug.obj
 0001:00081430       sf_debug_watch_data        0000000180082430 f   sfc_debug:sfcdebug.obj
 0001:00081460       sf_debug_assign_data       0000000180082460 f   sfc_debug:sfcdebug.obj
 0001:00081470       sf_debug_whos              0000000180082470 f   sfc_debug:sfcdebug.obj
 0001:00081490       sf_debug_get_consistency_info 0000000180082490 f   sfc_debug:sfcdebug.obj
 0001:000814a0       sf_debug_browse_trace      00000001800824a0 f   sfc_debug:sfcdebug.obj
 0001:000814b0       sf_debug_set_breakpoints   00000001800824b0 f   sfc_debug:sfcdebug.obj
 0001:00081620       sf_debug_set_eml_breakpoints 0000000180082620 f   sfc_debug:sfcdebug.obj
 0001:00081780       sf_debug_set_script_breakpoints 0000000180082780 f   sfc_debug:sfcdebug.obj
 0001:00081800       sf_debug_add_script_breakpoints 0000000180082800 f   sfc_debug:sfcdebug.obj
 0001:00081870       sf_debug_clear_script_breakpoints 0000000180082870 f   sfc_debug:sfcdebug.obj
 0001:000818e0       sf_debug_query_script_breakpoints 00000001800828e0 f   sfc_debug:sfcdebug.obj
 0001:00081990       sf_debug_get_eml_script_id 0000000180082990 f   sfc_debug:sfcdebug.obj
 0001:000819e0       sf_debug_set_watch         00000001800829e0 f   sfc_debug:sfcdebug.obj
 0001:00081c00       sf_debug_get_instance_handle 0000000180082c00 f   sfc_debug:sfcdebug.obj
 0001:00081c90       sf_debug_get_active_states 0000000180082c90 f   sfc_debug:sfcdebug.obj
 0001:00081ca0       sf_debug_set_honor_breakpoints 0000000180082ca0 f   sfc_debug:sfcdebug.obj
 0001:00081cb0       sf_debug_get_animation     0000000180082cb0 f   sfc_debug:sfcdebug.obj
 0001:00081cc0       sf_debug_set_animation     0000000180082cc0 f   sfc_debug:sfcdebug.obj
 0001:00081cd0       sf_debug_animate           0000000180082cd0 f   sfc_debug:sfcdebug.obj
 0001:00081cf0       sf_debug_cycle_detection_check 0000000180082cf0 f   sfc_debug:sfcdebug.obj
 0001:00081d00       sf_debug_data_range_check  0000000180082d00 f   sfc_debug:sfcdebug.obj
 0001:00081d10       sf_debug_transition_conflict_check 0000000180082d10 f   sfc_debug:sfcdebug.obj
 0001:00081d20       sf_debug_state_consistency_check 0000000180082d20 f   sfc_debug:sfcdebug.obj
 0001:00081d30       sf_debug_data_range_check_enabled 0000000180082d30 f   sfc_debug:sfcdebug.obj
 0001:00081d50       sf_debug_transition_conflict_check_enabled 0000000180082d50 f   sfc_debug:sfcdebug.obj
 0001:00081d70       sf_debug_transition_conflict_check_begin 0000000180082d70 f   sfc_debug:sfcdebug.obj
 0001:00081d90       sf_debug_transition_conflict_check_end 0000000180082d90 f   sfc_debug:sfcdebug.obj
 0001:00081db0       sf_debug_stop_debugging    0000000180082db0 f   sfc_debug:sfcdebug.obj
 0001:00081de0       sf_debug_is_cycle_detected 0000000180082de0 f   sfc_debug:sfcdebug.obj
 0001:00081df0       sf_debug_is_array_bounds_detected 0000000180082df0 f   sfc_debug:sfcdebug.obj
 0001:00081e00       sf_debug_get_state_vectors_data_size 0000000180082e00 f   sfc_debug:sfcdebug.obj
 0001:00081e40       sf_debug_get_state_vectors_data 0000000180082e40 f   sfc_debug:sfcdebug.obj
 0001:00081f50       sf_debug_set_state_vectors_data 0000000180082f50 f   sfc_debug:sfcdebug.obj
 0001:000821e0       sf_debug_get_script_index  00000001800831e0 f   sfc_debug:sfcdebug.obj
 0001:00082370       sf_debug_add_script        0000000180083370 f   sfc_debug:sfcdebug.obj
 0001:00082500       cv_eval_point              0000000180083500 f   sfc_debug:sfcdebug.obj
 0001:00082670       cv_eval_testobjective      0000000180083670 f   sfc_debug:sfcdebug.obj
 0001:00082780       sf_debug_cv_init_state     0000000180083780 f   sfc_debug:sfcdebug.obj
 0001:000828b0       sf_debug_cv_init_chart     00000001800838b0 f   sfc_debug:sfcdebug.obj
 0001:000829a0       sf_debug_cv_init_trans     00000001800839a0 f   sfc_debug:sfcdebug.obj
 0001:00082ab0       sf_debug_cv_init_saturation 0000000180083ab0 f   sfc_debug:sfcdebug.obj
 0001:00082bb0       sf_debug_cv_init_testobjectives 0000000180083bb0 f   sfc_debug:sfcdebug.obj
 0001:00082d90       cv_eml_init_script         0000000180083d90 f   sfc_debug:sfcdebug.obj
 0001:00082eb0       cv_eml_init_fcn            0000000180083eb0 f   sfc_debug:sfcdebug.obj
 0001:00082fc0       cv_eml_init_testobjective  0000000180083fc0 f   sfc_debug:sfcdebug.obj
 0001:000830a0       cv_eml_init_saturation     00000001800840a0 f   sfc_debug:sfcdebug.obj
 0001:00083170       cv_eml_init_if             0000000180084170 f   sfc_debug:sfcdebug.obj
 0001:00083250       cv_eml_init_for            0000000180084250 f   sfc_debug:sfcdebug.obj
 0001:00083320       cv_eml_init_while          0000000180084320 f   sfc_debug:sfcdebug.obj
 0001:000833f0       cv_eml_init_mcdc           00000001800843f0 f   sfc_debug:sfcdebug.obj
 0001:00083510       cv_eml_init_switch         0000000180084510 f   sfc_debug:sfcdebug.obj
 0001:00083610       cv_eml_eval                0000000180084610 f   sfc_debug:sfcdebug.obj
 0001:00083700       sf_debug_bm_is_a_eml_breakpoint 0000000180084700 f   sfc_debug:sfcdebug.obj
 0001:00083850       sf_debug_temporal_threshold 0000000180084850 f   sfc_debug:sfcdebug.obj
 0001:00083bc0       sf_debug_transition_conflict_error 0000000180084bc0 f   sfc_debug:sfcdebug.obj
 0001:00083f20       sf_debug_state_inconsistency_error 0000000180084f20 f   sfc_debug:sfcdebug.obj
 0001:00084040       sf_debug_check_for_state_inconsistency 0000000180085040 f   sfc_debug:sfcdebug.obj
 0001:00084080       sf_debug_cycle_detecton_error 0000000180085080 f   sfc_debug:sfcdebug.obj
 0001:000847d0       sf_debug_size_eq_check_1d  00000001800857d0 f   sfc_debug:sfcdebug.obj
 0001:000847f0       sf_debug_size_eq_check_nd  00000001800857f0 f   sfc_debug:sfcdebug.obj
 0001:000849f0       sf_debug_dim_size_eq_check 00000001800859f0 f   sfc_debug:sfcdebug.obj
 0001:00084a20       sf_debug_dim_size_geq_check 0000000180085a20 f   sfc_debug:sfcdebug.obj
 0001:00084a50       sf_debug_sub_assign_size_check_nd 0000000180085a50 f   sfc_debug:sfcdebug.obj
 0001:00084c30       sf_debug_matrix_matrix_index_check 0000000180085c30 f   sfc_debug:sfcdebug.obj
 0001:00084c80       sf_debug_vector_vector_index_check 0000000180085c80 f   sfc_debug:sfcdebug.obj
 0001:00084cd0       sf_debug_for_loop_vector_check 0000000180085cd0 f   sfc_debug:sfcdebug.obj
 0001:00084d70       sf_debug_runtime_error_msgid 0000000180085d70 f   sfc_debug:sfcdebug.obj
 0001:00084e10       sf_debug_data_array_bounds_error_check 0000000180085e10 f   sfc_debug:sfcdebug.obj
 0001:00084f20       sf_debug_eml_data_array_bounds_error_check 0000000180085f20 f   sfc_debug:sfcdebug.obj
 0001:000853e0       sf_debug_integer_check     00000001800863e0 f   sfc_debug:sfcdebug.obj
 0001:000854d0       sf_debug_not_nan_check     00000001800864d0 f   sfc_debug:sfcdebug.obj
 0001:000855a0       sf_debug_non_negative_check 00000001800865a0 f   sfc_debug:sfcdebug.obj
 0001:00085670       sf_debug_overflow_detection 0000000180086670 f   sfc_debug:sfcdebug.obj
 0001:00085cd0       sf_debug_cast_to_real32_T  0000000180086cd0 f   sfc_debug:sfcdebug.obj
 0001:00085da0       sf_debug_cast_to_int8_T    0000000180086da0 f   sfc_debug:sfcdebug.obj
 0001:00085e70       sf_debug_cast_to_uint8_T   0000000180086e70 f   sfc_debug:sfcdebug.obj
 0001:00085f40       sf_debug_cast_to_int16_T   0000000180086f40 f   sfc_debug:sfcdebug.obj
 0001:00086010       sf_debug_cast_to_uint16_T  0000000180087010 f   sfc_debug:sfcdebug.obj
 0001:000860e0       sf_debug_cast_to_int32_T   00000001800870e0 f   sfc_debug:sfcdebug.obj
 0001:000861b0       sf_debug_cast_to_uint32_T  00000001800871b0 f   sfc_debug:sfcdebug.obj
 0001:00086280       sf_debug_data_range_error  0000000180087280 f   sfc_debug:sfcdebug.obj
 0001:00086590       sf_debug_read_before_write_check 0000000180087590 f   sfc_debug:sfcdebug.obj
 0001:000869c0       sf_debug_data_range_error_wrapper_min_max 00000001800879c0 f   sfc_debug:sfcdebug.obj
 0001:00086ae0       sf_debug_data_range_error_wrapper_min 0000000180087ae0 f   sfc_debug:sfcdebug.obj
 0001:00086bf0       sf_debug_data_range_error_wrapper_max 0000000180087bf0 f   sfc_debug:sfcdebug.obj
 0001:00086d00       sf_debug_data_range_wrapper 0000000180087d00 f   sfc_debug:sfcdebug.obj
 0001:00086dc0       sf_debug_set_current_status_info 0000000180087dc0 f   sfc_debug:sfcdebug.obj
 0001:00087160       sf_debug_register_message_post_receive_info 0000000180088160 f   sfc_debug:sfcdebug.obj
 0001:000873b0       sf_debug_call              00000001800883b0 f   sfc_debug:sfcdebug.obj
 0001:00087d10       sf_debug_initialize_machine 0000000180088d10 f   sfc_debug:sfcdebug.obj
 0001:00087fc0       sf_debug_initialize_chart  0000000180088fc0 f   sfc_debug:sfcdebug.obj
 0001:00088410       sf_debug_ensure_script     0000000180089410 f   sfc_debug:sfcdebug.obj
 0001:000884c0       cv_eval_saturation         00000001800894c0 f   sfc_debug:sfcdebug.obj
 0001:00088640       cv_saturation_accum        0000000180089640 f   sfc_debug:sfcdebug.obj
 0001:00088780       cv_script_init_script      0000000180089780 f   sfc_debug:sfcdebug.obj
 0001:00088870       cv_script_init_fcn         0000000180089870 f   sfc_debug:sfcdebug.obj
 0001:00088930       cv_script_init_testobjective 0000000180089930 f   sfc_debug:sfcdebug.obj
 0001:000889f0       cv_script_init_saturation  00000001800899f0 f   sfc_debug:sfcdebug.obj
 0001:00088aa0       cv_script_init_if          0000000180089aa0 f   sfc_debug:sfcdebug.obj
 0001:00088b60       cv_script_init_for         0000000180089b60 f   sfc_debug:sfcdebug.obj
 0001:00088c10       cv_script_init_while       0000000180089c10 f   sfc_debug:sfcdebug.obj
 0001:00088cc0       cv_script_init_mcdc        0000000180089cc0 f   sfc_debug:sfcdebug.obj
 0001:00088dc0       cv_script_init_switch      0000000180089dc0 f   sfc_debug:sfcdebug.obj
 0001:00088ea0       cv_script_eval             0000000180089ea0 f   sfc_debug:sfcdebug.obj
 0001:00088f70       eml_debug_line_call        0000000180089f70 f   sfc_debug:sfcdebug.obj
 0001:00089140       sf_debug_terminate         000000018008a140 f   sfc_debug:sfcdebug.obj
 0001:00089350       sf_debug_set_script_cv_ids 000000018008a350 f   sfc_debug:sfcdebug.obj
 0001:00089480       sf_debug_api               000000018008a480 f   sfc_debug:sfc_api.obj
 0001:0008ad70       sf_debug_sm_terminate      000000018008bd70 f   sfc_debug:sfdb_animation.obj
 0001:0008af20       sf_debug_reset_path_objects 000000018008bf20 f   sfc_debug:sfdb_animation.obj
 0001:0008afa0       sf_debug_sm_reset_object_selection_status 000000018008bfa0 f   sfc_debug:sfdb_animation.obj
 0001:0008b040       sf_debug_sm_reset_state_buffer 000000018008c040 f   sfc_debug:sfdb_animation.obj
 0001:0008b110       sf_debug_sm_store_state_buffer 000000018008c110 f   sfc_debug:sfdb_animation.obj
 0001:0008b190       sf_debug_sm_restore_state_buffer1 000000018008c190 f   sfc_debug:sfdb_animation.obj
 0001:0008b200       sf_debug_sm_restore_state_buffer2 000000018008c200 f   sfc_debug:sfdb_animation.obj
 0001:0008b270       sf_debug_sm_chart_active   000000018008c270 f   sfc_debug:sfdb_animation.obj
 0001:0008b2c0       sf_debug_sm_select_active_objects 000000018008c2c0 f   sfc_debug:sfdb_animation.obj
 0001:0008b790       sf_debug_sm_is_chart_active 000000018008c790 f   sfc_debug:sfdb_animation.obj
 0001:0008b7d0       sf_debug_sm_is_state_active 000000018008c7d0 f   sfc_debug:sfdb_animation.obj
 0001:0008ba10       sf_debug_sm_get_active_states 000000018008ca10 f   sfc_debug:sfdb_animation.obj
 0001:0008bfc0       sf_debug_sm_initialize_instance 000000018008cfc0 f   sfc_debug:sfdb_animation.obj
 0001:0008c1d0       sf_debug_sm_change_object_selection_status 000000018008d1d0 f   sfc_debug:sfdb_animation.obj
 0001:0008c4a0       cv_create_interface        000000018008d4a0 f   sfc_debug:cv_sfinterface.obj
 0001:0008c7b0       cv_init_trans              000000018008d7b0 f   sfc_debug:cv_sfinterface.obj
 0001:0008c800       cv_init_saturation         000000018008d800 f   sfc_debug:cv_sfinterface.obj
 0001:0008c840       cv_init_testobjective      000000018008d840 f   sfc_debug:cv_sfinterface.obj
 0001:0008c880       cv_init_state              000000018008d880 f   sfc_debug:cv_sfinterface.obj
 0001:0008c8f0       cv_init_chart              000000018008d8f0 f   sfc_debug:cv_sfinterface.obj
 0001:0008c940       cv_dec_update_call         000000018008d940 f   sfc_debug:cv_sfinterface.obj
 0001:0008c980       cv_cond_update_call        000000018008d980 f   sfc_debug:cv_sfinterface.obj
 0001:0008c9c0       cv_saturation_update_call  000000018008d9c0 f   sfc_debug:cv_sfinterface.obj
 0001:0008ca00       cv_saturation_update_accum 000000018008da00 f   sfc_debug:cv_sfinterface.obj
 0001:0008ca40       cv_testobjective_update_call 000000018008da40 f   sfc_debug:cv_sfinterface.obj
 0001:0008ca80       cv_sigrange_update         000000018008da80 f   sfc_debug:cv_sfinterface.obj
 0001:0008cac0       cvsf_eml_eval              000000018008dac0 f   sfc_debug:cv_sfinterface.obj
 0001:0008cba0       cvsf_eml_init_script       000000018008dba0 f   sfc_debug:cv_sfinterface.obj
 0001:0008cc30       cvsf_eml_init_fcn          000000018008dc30 f   sfc_debug:cv_sfinterface.obj
 0001:0008cc90       cvsf_eml_init_testobjective 000000018008dc90 f   sfc_debug:cv_sfinterface.obj
 0001:0008ccf0       cvsf_eml_init_saturation   000000018008dcf0 f   sfc_debug:cv_sfinterface.obj
 0001:0008cd40       cvsf_eml_init_if           000000018008dd40 f   sfc_debug:cv_sfinterface.obj
 0001:0008cda0       cvsf_eml_init_for          000000018008dda0 f   sfc_debug:cv_sfinterface.obj
 0001:0008cdf0       cvsf_eml_init_while        000000018008ddf0 f   sfc_debug:cv_sfinterface.obj
 0001:0008ce40       cvsf_eml_init_mcdc         000000018008de40 f   sfc_debug:cv_sfinterface.obj
 0001:0008ced0       cvsf_eml_init_switch       000000018008ded0 f   sfc_debug:cv_sfinterface.obj
 0001:0008cf40       cvsf_script_eval           000000018008df40 f   sfc_debug:cv_sfinterface.obj
 0001:0008d020       cvsf_script_init_script    000000018008e020 f   sfc_debug:cv_sfinterface.obj
 0001:0008d0b0       cvsf_script_init_fcn       000000018008e0b0 f   sfc_debug:cv_sfinterface.obj
 0001:0008d110       cvsf_script_init_testobjective 000000018008e110 f   sfc_debug:cv_sfinterface.obj
 0001:0008d170       cvsf_script_init_saturation 000000018008e170 f   sfc_debug:cv_sfinterface.obj
 0001:0008d1c0       cvsf_script_init_if        000000018008e1c0 f   sfc_debug:cv_sfinterface.obj
 0001:0008d220       cvsf_script_init_for       000000018008e220 f   sfc_debug:cv_sfinterface.obj
 0001:0008d270       cvsf_script_init_while     000000018008e270 f   sfc_debug:cv_sfinterface.obj
 0001:0008d2c0       cvsf_script_init_mcdc      000000018008e2c0 f   sfc_debug:cv_sfinterface.obj
 0001:0008d350       cvsf_script_init_switch    000000018008e350 f   sfc_debug:cv_sfinterface.obj
 0001:0008d3c0       cv_destroy_interface       000000018008e3c0 f   sfc_debug:cv_sfinterface.obj
 0001:0008d3e0       cv_create_instance_objects 000000018008e3e0 f   sfc_debug:cv_sfinterface.obj
 0001:0008d850       cv_is_enabled              000000018008e850 f   sfc_debug:cv_sfinterface.obj
 0001:0008d860       sf_debug_cv_initialize_script 000000018008e860 f   sfc_debug:cv_sfinterface.obj
 0001:0008d9f0       sf_debug_cv_initialize_instance 000000018008e9f0 f   sfc_debug:cv_sfinterface.obj
 0001:0008dd80       sf_debug_cv_terminate_chart 000000018008ed80 f   sfc_debug:cv_sfinterface.obj
 0001:0008dea0       cv_call_trans_test         000000018008eea0 f   sfc_debug:cv_sfinterface.obj
 0001:0008deb0       cv_call_sub_cond_test      000000018008eeb0 f   sfc_debug:cv_sfinterface.obj
 0001:0008def0       sf_debug_st_initialize_machine 000000018008eef0 f   sfc_debug:sfdb_data_browse.obj
 0001:0008dfa0       sf_debug_st_initialize_instance 000000018008efa0 f   sfc_debug:sfdb_data_browse.obj
 0001:0008e1b0       sf_debug_st_terminate      000000018008f1b0 f   sfc_debug:sfdb_data_browse.obj
 0001:0008e550       sf_debug_st_set_data_value_ptr_in_machine 000000018008f550 f   sfc_debug:sfdb_data_browse.obj
 0001:0008e5e0       sf_debug_st_set_data_value_ptr_in_instance 000000018008f5e0 f   sfc_debug:sfdb_data_browse.obj
 0001:0008e6c0       sf_debug_st_unset_data_value_ptr_in_machine 000000018008f6c0 f   sfc_debug:sfdb_data_browse.obj
 0001:0008e730       sf_debug_st_unset_data_value_ptr_in_instance 000000018008f730 f   sfc_debug:sfdb_data_browse.obj
 0001:0008e9f0       sf_debug_mx_value          000000018008f9f0 f   sfc_debug:sfdb_data_browse.obj
 0001:0008ea50       sf_debug_mx_packed_vector  000000018008fa50 f   sfc_debug:sfdb_data_browse.obj
 0001:0008eb30       sf_debug_mx_uint_vector    000000018008fb30 f   sfc_debug:sfdb_data_browse.obj
 0001:0008ebe0       sf_debug_st_get_double_value_from_void_ptr_vector 000000018008fbe0 f   sfc_debug:sfdb_data_browse.obj
 0001:0008f6c0       sf_debug_st_browse_data    00000001800906c0 f   sfc_debug:sfdb_data_browse.obj
 0001:0008ff00       sf_debug_hm_initialize_instance 0000000180090f00 f   sfc_debug:sfdb_handle_management.obj
 0001:000903e0       sf_debug_hm_get_object_id  00000001800913e0 f   sfc_debug:sfdb_handle_management.obj
 0001:00090f90       sf_debug_hm_update_chart_visibility 0000000180091f90 f   sfc_debug:sfdb_handle_management.obj
 0001:00092180       sf_debug_object_is_eml_function 0000000180093180 f   sfc_debug:sfdb_handle_management.obj
 0001:000921f0       sf_debug_hm_initialize_ids_in_machine 00000001800931f0 f   sfc_debug:sfdb_handle_management.obj
 0001:00092360       sf_debug_hm_initialize_ids_in_chart 0000000180093360 f   sfc_debug:sfdb_handle_management.obj
 0001:00092460       sf_debug_hm_initialize_chart 0000000180093460 f   sfc_debug:sfdb_handle_management.obj
 0001:00092b60       sf_debug_hm_terminate      0000000180093b60 f   sfc_debug:sfdb_handle_management.obj
 0001:00092bc0       sf_debug_hm_initialize_machine 0000000180093bc0 f   sfc_debug:sfdb_handle_management.obj
 0001:000932e0       sf_debug_ss_initialize     00000001800942e0 f   sfc_debug:sfdb_symbol_scope.obj
 0001:00093300       sf_debug_ss_terminate      0000000180094300 f   sfc_debug:sfdb_symbol_scope.obj
 0001:00093390       sf_debug_ss_push_symbol_scope 0000000180094390 f   sfc_debug:sfdb_symbol_scope.obj
 0001:00093490       sf_debug_ss_push_symbol_scope_eml 0000000180094490 f   sfc_debug:sfdb_symbol_scope.obj
 0001:000934f0       sf_debug_ss_pop_symbol_scope 00000001800944f0 f   sfc_debug:sfdb_symbol_scope.obj
 0001:000935a0       sf_debug_ss_add_symbol     00000001800945a0 f   sfc_debug:sfdb_symbol_scope.obj
 0001:00093710       sf_debug_ss_add_symbol_eml 0000000180094710 f   sfc_debug:sfdb_symbol_scope.obj
 0001:00094610       sf_debug_ss_set_data_value 0000000180095610 f   sfc_debug:sfdb_symbol_scope.obj
 0001:00094a60       getInstanceNumber          0000000180095a60 f   sfc_debug:sfdb_symbol_scope.obj
 0001:00094b30       sf_debug_ss_watch_data     0000000180095b30 f   sfc_debug:sfdb_symbol_scope.obj
 0001:00094d20       sf_debug_ss_assign_data    0000000180095d20 f   sfc_debug:sfdb_symbol_scope.obj
 0001:00095730       get_data_entry_name        0000000180096730 f   sfc_debug:sfdb_symbol_scope.obj
 0001:00095780       sf_debug_ss_whos           0000000180096780 f   sfc_debug:sfdb_symbol_scope.obj
 0001:00095dd0       sf_debug_cc_initialize_chart 0000000180096dd0 f   sfc_debug:sfdb_coverage.obj
 0001:000967c0       sf_debug_cc_initialize_instance 00000001800977c0 f   sfc_debug:sfdb_coverage.obj
 0001:00097500       sf_debug_cc_terminate      0000000180098500 f   sfc_debug:sfdb_coverage.obj
 0001:000975f0       sf_debug_cc_set_transition_maps 00000001800985f0 f   sfc_debug:sfdb_coverage.obj
 0001:00097720       sf_debug_cc_set_state_maps 0000000180098720 f   sfc_debug:sfdb_coverage.obj
 0001:00097800       sf_debug_cc_set_transition_weights 0000000180098800 f   sfc_debug:sfdb_coverage.obj
 0001:00097ac0       sf_debug_cc_set_state_weights 0000000180098ac0 f   sfc_debug:sfdb_coverage.obj
 0001:00097d90       sf_debug_cc_mark_transition_guard 0000000180098d90 f   sfc_debug:sfdb_coverage.obj
 0001:00097e20       sf_debug_cc_mark_transition_trigger 0000000180098e20 f   sfc_debug:sfdb_coverage.obj
 0001:00097eb0       sf_debug_cc_mark_transition_decision 0000000180098eb0 f   sfc_debug:sfdb_coverage.obj
 0001:00097f20       sf_debug_cc_mark_transition_condition_action 0000000180098f20 f   sfc_debug:sfdb_coverage.obj
 0001:00097f70       sf_debug_cc_mark_transition_transition_action 0000000180098f70 f   sfc_debug:sfdb_coverage.obj
 0001:00097fc0       sf_debug_cc_mark_state_entry 0000000180098fc0 f   sfc_debug:sfdb_coverage.obj
 0001:00098010       sf_debug_cc_mark_state_during 0000000180099010 f   sfc_debug:sfdb_coverage.obj
 0001:00098060       sf_debug_cc_mark_state_exit 0000000180099060 f   sfc_debug:sfdb_coverage.obj
 0001:000980b0       sf_debug_bm_clear_script_breakpoints 00000001800990b0 f   sfc_debug:sfdb_breakpoints.obj
 0001:000980e0       sf_debug_bm_set_script_breakpoint 00000001800990e0 f   sfc_debug:sfdb_breakpoints.obj
 0001:00098160       sf_debug_bm_clear_single_script_breakpoint 0000000180099160 f   sfc_debug:sfdb_breakpoints.obj
 0001:000981e0       sf_debug_bm_query_script_breakpoint 00000001800991e0 f   sfc_debug:sfdb_breakpoints.obj
 0001:00098230       sf_debug_bm_initialize_scripts 0000000180099230 f   sfc_debug:sfdb_breakpoints.obj
 0001:000988c0       sf_debug_bm_terminate      00000001800998c0 f   sfc_debug:sfdb_breakpoints.obj
 0001:00098ba0       sf_debug_bm_remove_all_breakpoints_in_machine 0000000180099ba0 f   sfc_debug:sfdb_breakpoints.obj
 0001:00098c00       sf_debug_bm_remove_all_breakpoints_in_chart 0000000180099c00 f   sfc_debug:sfdb_breakpoints.obj
 0001:00098d50       sf_debug_bm_initialize_global_breakpoints 0000000180099d50 f   sfc_debug:sfdb_breakpoints.obj
 0001:00098ed0       sf_debug_bm_set_breakpoint 0000000180099ed0 f   sfc_debug:sfdb_breakpoints.obj
 0001:00099490       sf_debug_bm_set_eml_breakpoint 000000018009a490 f   sfc_debug:sfdb_breakpoints.obj
 0001:00099520       sf_debug_bm_initialize_machine_breakpoint_map 000000018009a520 f   sfc_debug:sfdb_breakpoints.obj
 0001:00099940       sf_debug_bm_is_a_breakpoint 000000018009a940 f   sfc_debug:sfdb_breakpoints.obj
 0001:00099e60       sf_debug_bm_get_all_breakpoints_in_machine 000000018009ae60 f   sfc_debug:sfdb_breakpoints.obj
 0001:0009a160       sf_debug_bm_get_all_breakpoints_in_chart 000000018009b160 f   sfc_debug:sfdb_breakpoints.obj
 0001:0009acf0       sf_debug_bm_initialize_machine 000000018009bcf0 f   sfc_debug:sfdb_breakpoints.obj
 0001:0009adc0       sf_debug_bm_initialize_chart 000000018009bdc0 f   sfc_debug:sfdb_breakpoints.obj
 0001:0009b1b0       sf_debug_sc_terminate      000000018009c1b0 f   sfc_debug:sfdb_state_consistency.obj
 0001:0009b4d0       sf_debug_sc_is_chart_consistent 000000018009c4d0 f   sfc_debug:sfdb_state_consistency.obj
 0001:0009b780       sf_debug_sc_get_consistency_error_info 000000018009c780 f   sfc_debug:sfdb_state_consistency.obj
 0001:0009bb90       sf_debug_tm_terminate      000000018009cb90 f   sfc_debug:sfdb_call_stack.obj
 0001:0009bc40       sf_debug_tm_push_chart_instance 000000018009cc40 f   sfc_debug:sfdb_call_stack.obj
 0001:0009bd80       sf_debug_tm_pop_chart_instance 000000018009cd80 f   sfc_debug:sfdb_call_stack.obj
 0001:0009bde0       sf_debug_tm_push_trace_node 000000018009cde0 f   sfc_debug:sfdb_call_stack.obj
 0001:0009bf60       sf_debug_tm_pop_trace_node 000000018009cf60 f   sfc_debug:sfdb_call_stack.obj
 0001:0009bfe0       sf_debug_tm_get_current_global_trace_index 000000018009cfe0 f   sfc_debug:sfdb_call_stack.obj
 0001:0009bff0       sf_debug_tm_get_current_local_trace_index 000000018009cff0 f   sfc_debug:sfdb_call_stack.obj
 0001:0009c020       sf_debug_tm_set_cycle_detected_flag 000000018009d020 f   sfc_debug:sfdb_call_stack.obj
 0001:0009c060       sf_debug_tm_set_cycle_started_flag 000000018009d060 f   sfc_debug:sfdb_call_stack.obj
 0001:0009c0a0       sf_debug_tm_get_chart_number_from_stack 000000018009d0a0 f   sfc_debug:sfdb_call_stack.obj
 0001:0009c2a0       sf_debug_tm_browse_trace   000000018009d2a0 f   sfc_debug:sfdb_call_stack.obj
 0001:0009c5b0       sf_debug_cd_initialize_instance 000000018009d5b0 f   sfc_debug:sfdb_cycle_detection.obj
 0001:0009c860       sf_debug_cd_mark_processed_transition_in_instance 000000018009d860 f   sfc_debug:sfdb_cycle_detection.obj
 0001:0009c900       sf_debug_cd_checksum_push  000000018009d900 f   sfc_debug:sfdb_cycle_detection.obj
 0001:0009cbb0       sf_debug_cd_checksum_pop   000000018009dbb0 f   sfc_debug:sfdb_cycle_detection.obj
 0001:0009cc20       sf_debug_cd_turn_off_cycle_detection 000000018009dc20 f   sfc_debug:sfdb_cycle_detection.obj
 0001:0009cc70       sf_debug_cd_terminate      000000018009dc70 f   sfc_debug:sfdb_cycle_detection.obj
 0001:0009cea0       md5_initialize_state       000000018009dea0 f   sfc_debug:ckmd5.obj
 0001:0009d930       md5_update_state           000000018009e930 f   sfc_debug:ckmd5.obj
 0001:0009d950       md5_get_hash               000000018009e950 f   sfc_debug:ckmd5.obj
 0001:0009d980       md5_get_hash_for_a_single_string 000000018009e980 f   sfc_debug:ckmd5.obj
 0001:0009d9e0       mxGetPr                    000000018009e9e0 f   libmx:libmx.dll
 0001:0009d9e6       mxCreateDoubleScalar       000000018009e9e6 f   libmx:libmx.dll
 0001:0009d9ec       mxCreateDoubleMatrix_730   000000018009e9ec f   libmx:libmx.dll
 0001:0009d9f2       mxSetField_730             000000018009e9f2 f   libmx:libmx.dll
 0001:0009d9f8       mxCreateString             000000018009e9f8 f   libmx:libmx.dll
 0001:0009d9fe       mxCreateStructMatrix_730   000000018009e9fe f   libmx:libmx.dll
 0001:0009da04       mxCreateCellMatrix_730     000000018009ea04 f   libmx:libmx.dll
 0001:0009da0a       mxDestroyArray             000000018009ea0a f   libmx:libmx.dll
 0001:0009da10       mxDuplicateArray           000000018009ea10 f   libmx:libmx.dll
 0001:0009da16       mxGetNaN                   000000018009ea16 f   libmx:libmx.dll
 0001:0009da1c       mxGetString_730            000000018009ea1c f   libmx:libmx.dll
 0001:0009da22       mxIsChar                   000000018009ea22 f   libmx:libmx.dll
 0001:0009da28       mxGetClassID               000000018009ea28 f   libmx:libmx.dll
 0001:0009da2e       mxIsNumeric                000000018009ea2e f   libmx:libmx.dll
 0001:0009da34       mxIsComplex                000000018009ea34 f   libmx:libmx.dll
 0001:0009da3a       mxGetN                     000000018009ea3a f   libmx:libmx.dll
 0001:0009da40       mxGetM                     000000018009ea40 f   libmx:libmx.dll
 0001:0009da46       mxCalloc                   000000018009ea46 f   libmx:libmx.dll
 0001:0009da4c       mxGetScalar                000000018009ea4c f   libmx:libmx.dll
 0001:0009da52       mxIsLogical                000000018009ea52 f   libmx:libmx.dll
 0001:0009da58       mxCreateDoubleMatrix_700   000000018009ea58 f   libmx:libmx.dll
 0001:0009da5e       mxFree                     000000018009ea5e f   libmx:libmx.dll
 0001:0009da64       mxArrayToString            000000018009ea64 f   libmx:libmx.dll
 0001:0009da6a       mxCreateCellMatrix_700     000000018009ea6a f   libmx:libmx.dll
 0001:0009da70       mxSetCell_700              000000018009ea70 f   libmx:libmx.dll
 0001:0009da76       mxGetCell_700              000000018009ea76 f   libmx:libmx.dll
 0001:0009da7c       mxGetClassName             000000018009ea7c f   libmx:libmx.dll
 0001:0009da82       mxSetField_700             000000018009ea82 f   libmx:libmx.dll
 0001:0009da88       mxAddField                 000000018009ea88 f   libmx:libmx.dll
 0001:0009da8e       mxGetField_700             000000018009ea8e f   libmx:libmx.dll
 0001:0009da94       mxGetNumberOfElements      000000018009ea94 f   libmx:libmx.dll
 0001:0009da9a       mxIsStruct                 000000018009ea9a f   libmx:libmx.dll
 0001:0009daa0       mxIsA                      000000018009eaa0 f   libmx:libmx.dll
 0001:0009daa6       mxIsClass                  000000018009eaa6 f   libmx:libmx.dll
 0001:0009daac       mxGetLogicals              000000018009eaac f   libmx:libmx.dll
 0001:0009dab2       mxIsSparse                 000000018009eab2 f   libmx:libmx.dll
 0001:0009dab8       mxSetFieldByNumber_700     000000018009eab8 f   libmx:libmx.dll
 0001:0009dabe       mxGetFieldByNumber_700     000000018009eabe f   libmx:libmx.dll
 0001:0009dac4       mxGetFieldNameByNumber     000000018009eac4 f   libmx:libmx.dll
 0001:0009daca       mxGetNumberOfFields        000000018009eaca f   libmx:libmx.dll
 0001:0009dad0       mxCreateStructMatrix_700   000000018009ead0 f   libmx:libmx.dll
 0001:0009dad6       mxGetFieldNumber           000000018009ead6 f   libmx:libmx.dll
 0001:0009dadc       mxIsNaN                    000000018009eadc f   libmx:libmx.dll
 0001:0009dae2       mxIsEmpty                  000000018009eae2 f   libmx:libmx.dll
 0001:0009dae8       mxGetData                  000000018009eae8 f   libmx:libmx.dll
 0001:0009daee       mxGetImagData              000000018009eaee f   libmx:libmx.dll
 0001:0009daf4       mxArrayClassIDName         000000018009eaf4 f   libmx:libmx.dll
 0001:0009dafa       mxCreateNumericMatrix_700  000000018009eafa f   libmx:libmx.dll
 0001:0009db00       mxCreateStructArray_700    000000018009eb00 f   libmx:libmx.dll
 0001:0009db06       mxCalcSingleSubscript_700  000000018009eb06 f   libmx:libmx.dll
 0001:0009db0c       mxGetDimensions_700        000000018009eb0c f   libmx:libmx.dll
 0001:0009db12       mxGetNumberOfDimensions_700 000000018009eb12 f   libmx:libmx.dll
 0001:0009db18       mxCreateNumericArray_700   000000018009eb18 f   libmx:libmx.dll
 0001:0009db1e       mxGetElementSize           000000018009eb1e f   libmx:libmx.dll
 0001:0009db24       mxCreateStringFromNChars_700 000000018009eb24 f   libmx:libmx.dll
 0001:0009db2a       mxGetString_700            000000018009eb2a f   libmx:libmx.dll
 0001:0009db30       mxIsLogicalScalarTrue      000000018009eb30 f   libmx:libmx.dll
 0001:0009db36       mxCreateLogicalScalar      000000018009eb36 f   libmx:libmx.dll
 0001:0009db3c       mexUnlock                  000000018009eb3c f   libmex:libmex.dll
 0001:0009db42       mexIsLocked                000000018009eb42 f   libmex:libmex.dll
 0001:0009db48       mexWarnMsgTxt              000000018009eb48 f   libmex:libmex.dll
 0001:0009db4e       mexCallMATLAB              000000018009eb4e f   libmex:libmex.dll
 0001:0009db54       mexErrMsgTxt               000000018009eb54 f   libmex:libmex.dll
 0001:0009db5a       mexMakeArrayPersistent     000000018009eb5a f   libmex:libmex.dll
 0001:0009db60       mexSetTrapFlag             000000018009eb60 f   libmex:libmex.dll
 0001:0009db66       mexPutVariable             000000018009eb66 f   libmex:libmex.dll
 0001:0009db6c       mexGetVariable             000000018009eb6c f   libmex:libmex.dll
 0001:0009db72       mexLock                    000000018009eb72 f   libmex:libmex.dll
 0001:0009db78       mexMakeMemoryPersistent    000000018009eb78 f   libmex:libmex.dll
 0001:0009db7e       mexFunctionName            000000018009eb7e f   libmex:libmex.dll
 0001:0009db84       ssRegisterDataTypeFxpFSlopeFixExpBias 000000018009eb84 f   libfixedpoint:libfixedpoint.dll
 0001:0009db8a       ssRegisterDataTypeFxpScaledDouble 000000018009eb8a f   libfixedpoint:libfixedpoint.dll
 0001:0009db90       utMalloc                   000000018009eb90 f   libut:libut.dll
 0001:0009db96       utFree                     000000018009eb96 f   libut:libut.dll
 0001:0009db9c       utVSNprintf                000000018009eb9c f   libut:libut.dll
 0001:0009dba2       utCPUtime                  000000018009eba2 f   libut:libut.dll
 0001:0009dba8       utCalloc                   000000018009eba8 f   libut:libut.dll
 0001:0009dbae       utRealloc                  000000018009ebae f   libut:libut.dll
 0001:0009dbb4       muDoubleScalarCos          000000018009ebb4 f   libmwmathutil:libmwmathutil.dll
 0001:0009dbba       muDoubleScalarTan          000000018009ebba f   libmwmathutil:libmwmathutil.dll
 0001:0009dbc0       muDoubleScalarIsNaN        000000018009ebc0 f   libmwmathutil:libmwmathutil.dll
 0001:0009dbc6       muDoubleScalarAbs          000000018009ebc6 f   libmwmathutil:libmwmathutil.dll
 0001:0009dbcc       muDoubleScalarAcos         000000018009ebcc f   libmwmathutil:libmwmathutil.dll
 0001:0009dbd2       muDoubleScalarSqrt         000000018009ebd2 f   libmwmathutil:libmwmathutil.dll
 0001:0009dbd8       muDoubleScalarSin          000000018009ebd8 f   libmwmathutil:libmwmathutil.dll
 0001:0009dbde       muDoubleScalarRound        000000018009ebde f   libmwmathutil:libmwmathutil.dll
 0001:0009dbe4       muDoubleScalarFloor        000000018009ebe4 f   libmwmathutil:libmwmathutil.dll
 0001:0009dbea       emlrtCreateRootTLS         000000018009ebea f   libemlrt:libemlrt.dll
 0001:0009dbf0       emlrtDestroyRootTLS        000000018009ebf0 f   libemlrt:libemlrt.dll
 0001:0009dbf6       emlrtCheckBuiltInR2012b    000000018009ebf6 f   libemlrt:libemlrt.dll
 0001:0009dbfc       emlrtCheckVsBuiltInR2012b  000000018009ebfc f   libemlrt:libemlrt.dll
 0001:0009dc02       emlrtCheckEnumR2012b       000000018009ec02 f   libemlrt:libemlrt.dll
 0001:0009dc08       emlrtCreateEnumR2012b      000000018009ec08 f   libemlrt:libemlrt.dll
 0001:0009dc0e       emlrtGetEnumElementR2009a  000000018009ec0e f   libemlrt:libemlrt.dll
 0001:0009dc14       emlrtCreateReference       000000018009ec14 f   libemlrt:libemlrt.dll
 0001:0009dc1a       emlrtImportVsFiArrayR2009b 000000018009ec1a f   libemlrt:libemlrt.dll
 0001:0009dc20       emlrtNameCapturePostProcessR2012a 000000018009ec20 f   libemlrt:libemlrt.dll
 0001:0009dc26       emlrtExtractMessageId      000000018009ec26 f   libemlrt:libemlrt.dll
 0001:0009dc2c       emlrtTranslateMessageIDtoLCPstring 000000018009ec2c f   libemlrt:libemlrt.dll
 0001:0009dc32       emlrtForLoopVectorIsValidR2011b 000000018009ec32 f   libemlrt:libemlrt.dll
 0001:0009dc38       emlrtTranslateUTF16MessagetoLCPstring 000000018009ec38 f   libemlrt:libemlrt.dll
 0001:0009dc3e       emlrtGetEnumUnderlyingArrayR2009a 000000018009ec3e f   libemlrt:libemlrt.dll
 0001:0009dc44       emlrtIsEnumR2009a          000000018009ec44 f   libemlrt:libemlrt.dll
 0001:0009dc4a       strlen                     000000018009ec4a f   MSVCRT:MSVCR90.dll
 0001:0009dc50       memset                     000000018009ec50 f   MSVCRT:MSVCR90.dll
 0001:0009dc58       __GSHandlerCheckCommon     000000018009ec58 f   MSVCRT:gshandler.obj
 0001:0009dcbc       __GSHandlerCheck           000000018009ecbc f   MSVCRT:gshandler.obj
 0001:0009dcf0       __security_check_cookie    000000018009ecf0 f   MSVCRT:amdsecgs.obj
 0001:0009dd10       strcmp                     000000018009ed10 f   MSVCRT:MSVCR90.dll
 0001:0009dd16       free                       000000018009ed16 f   MSVCRT:MSVCR90.dll
 0001:0009dd1c       sprintf                    000000018009ed1c f   MSVCRT:MSVCR90.dll
 0001:0009dd22       malloc                     000000018009ed22 f   MSVCRT:MSVCR90.dll
 0001:0009dd28       strcat                     000000018009ed28 f   MSVCRT:MSVCR90.dll
 0001:0009dd2e       memcpy                     000000018009ed2e f   MSVCRT:MSVCR90.dll
 0001:0009dd34       NtCurrentTeb               000000018009ed34 f i MSVCRT:crtdll.obj
 0001:0009dda0       _CRT_INIT                  000000018009eda0 f   MSVCRT:crtdll.obj
 0001:0009e134       _DllMainCRTStartup         000000018009f134 f   MSVCRT:crtdll.obj
 0001:0009e172       strncpy                    000000018009f172 f   MSVCRT:MSVCR90.dll
 0001:0009e178       longjmp                    000000018009f178 f   MSVCRT:MSVCR90.dll
 0001:0009e17e       strncmp                    000000018009f17e f   MSVCRT:MSVCR90.dll
 0001:0009e184       ceil                       000000018009f184 f   MSVCRT:MSVCR90.dll
 0001:0009e18a       strrchr                    000000018009f18a f   MSVCRT:MSVCR90.dll
 0001:0009e190       _setjmp                    000000018009f190 f   MSVCRT:MSVCR90.dll
 0001:0009e196       ldexp                      000000018009f196 f   MSVCRT:MSVCR90.dll
 0001:0009e19c       __report_gsfailure         000000018009f19c f   MSVCRT:gs_report.obj
 0001:0009e2e8       __clean_type_info_names    000000018009f2e8 f   MSVCRT:tncleanup.obj
 0001:0009e2f4       _onexit                    000000018009f2f4 f   MSVCRT:atonexit.obj
 0001:0009e3a4       atexit                     000000018009f3a4 f   MSVCRT:atonexit.obj
 0001:0009e3bc       _RTC_Initialize            000000018009f3bc f   MSVCRT:_initsect_.obj
 0001:0009e3f4       _RTC_Terminate             000000018009f3f4 f   MSVCRT:_initsect_.obj
 0001:0009e42c       _encode_pointer            000000018009f42c f   MSVCRT:MSVCR90.dll
 0001:0009e432       _malloc_crt                000000018009f432 f   MSVCRT:MSVCR90.dll
 0001:0009e440       _ValidateImageBase         000000018009f440 f   MSVCRT:pesect.obj
 0001:0009e470       _FindPESection             000000018009f470 f   MSVCRT:pesect.obj
 0001:0009e4c0       _IsNonwritableInCurrentImage 000000018009f4c0 f   MSVCRT:pesect.obj
 0001:0009e502       _initterm                  000000018009f502 f   MSVCRT:MSVCR90.dll
 0001:0009e508       _initterm_e                000000018009f508 f   MSVCRT:MSVCR90.dll
 0001:0009e50e       _encoded_null              000000018009f50e f   MSVCRT:MSVCR90.dll
 0001:0009e514       _decode_pointer            000000018009f514 f   MSVCRT:MSVCR90.dll
 0001:0009e51a       _amsg_exit                 000000018009f51a f   MSVCRT:MSVCR90.dll
 0001:0009e520       __C_specific_handler       000000018009f520 f   MSVCRT:MSVCR90.dll
 0001:0009e526       __CppXcptFilter            000000018009f526 f   MSVCRT:MSVCR90.dll
 0001:0009e52c       DllMain                    000000018009f52c f   MSVCRT:dllmain.obj
 0001:0009e550       __security_init_cookie     000000018009f550 f   MSVCRT:gs_support.obj
 0001:0009e604       __crt_debugger_hook        000000018009f604 f   MSVCRT:MSVCR90.dll
 0001:0009e60a       __clean_type_info_names_internal 000000018009f60a f   MSVCRT:MSVCR90.dll
 0001:0009e610       _unlock                    000000018009f610 f   MSVCRT:MSVCR90.dll
 0001:0009e616       __dllonexit                000000018009f616 f   MSVCRT:MSVCR90.dll
 0001:0009e61c       _lock                      000000018009f61c f   MSVCRT:MSVCR90.dll
 0001:0009e622       Sleep                      000000018009f622 f   kernel32:KERNEL32.dll
 0001:0009e628       TerminateProcess           000000018009f628 f   kernel32:KERNEL32.dll
 0001:0009e62e       GetCurrentProcess          000000018009f62e f   kernel32:KERNEL32.dll
 0001:0009e634       UnhandledExceptionFilter   000000018009f634 f   kernel32:KERNEL32.dll
 0001:0009e63a       SetUnhandledExceptionFilter 000000018009f63a f   kernel32:KERNEL32.dll
 0001:0009e640       IsDebuggerPresent          000000018009f640 f   kernel32:KERNEL32.dll
 0001:0009e646       RtlVirtualUnwind           000000018009f646 f   kernel32:KERNEL32.dll
 0001:0009e64c       RtlLookupFunctionEntry     000000018009f64c f   kernel32:KERNEL32.dll
 0001:0009e652       RtlCaptureContext          000000018009f652 f   kernel32:KERNEL32.dll
 0001:0009e658       DisableThreadLibraryCalls  000000018009f658 f   kernel32:KERNEL32.dll
 0001:0009e65e       QueryPerformanceCounter    000000018009f65e f   kernel32:KERNEL32.dll
 0001:0009e664       GetTickCount               000000018009f664 f   kernel32:KERNEL32.dll
 0001:0009e66a       GetCurrentThreadId         000000018009f66a f   kernel32:KERNEL32.dll
 0001:0009e670       GetCurrentProcessId        000000018009f670 f   kernel32:KERNEL32.dll
 0001:0009e676       GetSystemTimeAsFileTime    000000018009f676 f   kernel32:KERNEL32.dll
 0001:0009e690       __chkstk                   000000018009f690 f   MSVCRT:chkstk.obj
 0001:0009e690       _alloca_probe              000000018009f690     MSVCRT:chkstk.obj
 0002:00000000       __imp_RtlLookupFunctionEntry 00000001800a0000     kernel32:KERNEL32.dll
 0002:00000008       __imp_RtlVirtualUnwind     00000001800a0008     kernel32:KERNEL32.dll
 0002:00000010       __imp_IsDebuggerPresent    00000001800a0010     kernel32:KERNEL32.dll
 0002:00000018       __imp_SetUnhandledExceptionFilter 00000001800a0018     kernel32:KERNEL32.dll
 0002:00000020       __imp_UnhandledExceptionFilter 00000001800a0020     kernel32:KERNEL32.dll
 0002:00000028       __imp_GetCurrentProcess    00000001800a0028     kernel32:KERNEL32.dll
 0002:00000030       __imp_TerminateProcess     00000001800a0030     kernel32:KERNEL32.dll
 0002:00000038       __imp_Sleep                00000001800a0038     kernel32:KERNEL32.dll
 0002:00000040       __imp_DisableThreadLibraryCalls 00000001800a0040     kernel32:KERNEL32.dll
 0002:00000048       __imp_QueryPerformanceCounter 00000001800a0048     kernel32:KERNEL32.dll
 0002:00000050       __imp_GetTickCount         00000001800a0050     kernel32:KERNEL32.dll
 0002:00000058       __imp_GetCurrentThreadId   00000001800a0058     kernel32:KERNEL32.dll
 0002:00000060       __imp_GetCurrentProcessId  00000001800a0060     kernel32:KERNEL32.dll
 0002:00000068       __imp_GetSystemTimeAsFileTime 00000001800a0068     kernel32:KERNEL32.dll
 0002:00000070       __imp_RtlCaptureContext    00000001800a0070     kernel32:KERNEL32.dll
 0002:00000078       \177KERNEL32_NULL_THUNK_DATA 00000001800a0078     kernel32:KERNEL32.dll
 0002:00000080       __imp__encode_pointer      00000001800a0080     MSVCRT:MSVCR90.dll
 0002:00000088       __imp__onexit              00000001800a0088     MSVCRT:MSVCR90.dll
 0002:00000090       __imp__lock                00000001800a0090     MSVCRT:MSVCR90.dll
 0002:00000098       __imp___dllonexit          00000001800a0098     MSVCRT:MSVCR90.dll
 0002:000000a0       __imp__unlock              00000001800a00a0     MSVCRT:MSVCR90.dll
 0002:000000a8       __imp___clean_type_info_names_internal 00000001800a00a8     MSVCRT:MSVCR90.dll
 0002:000000b0       __imp___crt_debugger_hook  00000001800a00b0     MSVCRT:MSVCR90.dll
 0002:000000b8       __imp___CppXcptFilter      00000001800a00b8     MSVCRT:MSVCR90.dll
 0002:000000c0       __imp___C_specific_handler 00000001800a00c0     MSVCRT:MSVCR90.dll
 0002:000000c8       __imp__amsg_exit           00000001800a00c8     MSVCRT:MSVCR90.dll
 0002:000000d0       __imp__decode_pointer      00000001800a00d0     MSVCRT:MSVCR90.dll
 0002:000000d8       __imp__encoded_null        00000001800a00d8     MSVCRT:MSVCR90.dll
 0002:000000e0       __imp__initterm_e          00000001800a00e0     MSVCRT:MSVCR90.dll
 0002:000000e8       __imp__initterm            00000001800a00e8     MSVCRT:MSVCR90.dll
 0002:000000f0       __imp__malloc_crt          00000001800a00f0     MSVCRT:MSVCR90.dll
 0002:000000f8       __imp_strlen               00000001800a00f8     MSVCRT:MSVCR90.dll
 0002:00000100       __imp_ldexp                00000001800a0100     MSVCRT:MSVCR90.dll
 0002:00000108       __imp__setjmp              00000001800a0108     MSVCRT:MSVCR90.dll
 0002:00000110       __imp_strrchr              00000001800a0110     MSVCRT:MSVCR90.dll
 0002:00000118       __imp_ceil                 00000001800a0118     MSVCRT:MSVCR90.dll
 0002:00000120       __imp_strncmp              00000001800a0120     MSVCRT:MSVCR90.dll
 0002:00000128       __imp_longjmp              00000001800a0128     MSVCRT:MSVCR90.dll
 0002:00000130       __imp_strncpy              00000001800a0130     MSVCRT:MSVCR90.dll
 0002:00000138       __imp_memcpy               00000001800a0138     MSVCRT:MSVCR90.dll
 0002:00000140       __imp_strcat               00000001800a0140     MSVCRT:MSVCR90.dll
 0002:00000148       __imp_malloc               00000001800a0148     MSVCRT:MSVCR90.dll
 0002:00000150       __imp_sprintf              00000001800a0150     MSVCRT:MSVCR90.dll
 0002:00000158       __imp_free                 00000001800a0158     MSVCRT:MSVCR90.dll
 0002:00000160       __imp_strcmp               00000001800a0160     MSVCRT:MSVCR90.dll
 0002:00000168       __imp_memset               00000001800a0168     MSVCRT:MSVCR90.dll
 0002:00000170       \177MSVCR90_NULL_THUNK_DATA 00000001800a0170     MSVCRT:MSVCR90.dll
 0002:00000178       __imp_emlrtCreateRootTLS   00000001800a0178     libemlrt:libemlrt.dll
 0002:00000180       __imp_emlrtIsEnumR2009a    00000001800a0180     libemlrt:libemlrt.dll
 0002:00000188       __imp_emlrtGetEnumUnderlyingArrayR2009a 00000001800a0188     libemlrt:libemlrt.dll
 0002:00000190       __imp_emlrtTranslateUTF16MessagetoLCPstring 00000001800a0190     libemlrt:libemlrt.dll
 0002:00000198       __imp_emlrtForLoopVectorIsValidR2011b 00000001800a0198     libemlrt:libemlrt.dll
 0002:000001a0       __imp_emlrtTranslateMessageIDtoLCPstring 00000001800a01a0     libemlrt:libemlrt.dll
 0002:000001a8       __imp_emlrtExtractMessageId 00000001800a01a8     libemlrt:libemlrt.dll
 0002:000001b0       __imp_emlrtNameCapturePostProcessR2012a 00000001800a01b0     libemlrt:libemlrt.dll
 0002:000001b8       __imp_emlrtImportVsFiArrayR2009b 00000001800a01b8     libemlrt:libemlrt.dll
 0002:000001c0       __imp_emlrtCreateReference 00000001800a01c0     libemlrt:libemlrt.dll
 0002:000001c8       __imp_emlrtGetEnumElementR2009a 00000001800a01c8     libemlrt:libemlrt.dll
 0002:000001d0       __imp_emlrtDestroyRootTLS  00000001800a01d0     libemlrt:libemlrt.dll
 0002:000001d8       __imp_emlrtCheckBuiltInR2012b 00000001800a01d8     libemlrt:libemlrt.dll
 0002:000001e0       __imp_emlrtCheckVsBuiltInR2012b 00000001800a01e0     libemlrt:libemlrt.dll
 0002:000001e8       __imp_emlrtCheckEnumR2012b 00000001800a01e8     libemlrt:libemlrt.dll
 0002:000001f0       __imp_emlrtCreateEnumR2012b 00000001800a01f0     libemlrt:libemlrt.dll
 0002:000001f8       \177libemlrt_NULL_THUNK_DATA 00000001800a01f8     libemlrt:libemlrt.dll
 0002:00000200       __imp_ssRegisterDataTypeFxpFSlopeFixExpBias 00000001800a0200     libfixedpoint:libfixedpoint.dll
 0002:00000208       __imp_ssRegisterDataTypeFxpScaledDouble 00000001800a0208     libfixedpoint:libfixedpoint.dll
 0002:00000210       \177libfixedpoint_NULL_THUNK_DATA 00000001800a0210     libfixedpoint:libfixedpoint.dll
 0002:00000218       __imp_mexGetVariable       00000001800a0218     libmex:libmex.dll
 0002:00000220       __imp_mexLock              00000001800a0220     libmex:libmex.dll
 0002:00000228       __imp_mexMakeMemoryPersistent 00000001800a0228     libmex:libmex.dll
 0002:00000230       __imp_mexFunctionName      00000001800a0230     libmex:libmex.dll
 0002:00000238       __imp_mexPutVariable       00000001800a0238     libmex:libmex.dll
 0002:00000240       __imp_mexSetTrapFlag       00000001800a0240     libmex:libmex.dll
 0002:00000248       __imp_mexErrMsgTxt         00000001800a0248     libmex:libmex.dll
 0002:00000250       __imp_mexCallMATLAB        00000001800a0250     libmex:libmex.dll
 0002:00000258       __imp_mexWarnMsgTxt        00000001800a0258     libmex:libmex.dll
 0002:00000260       __imp_mexIsLocked          00000001800a0260     libmex:libmex.dll
 0002:00000268       __imp_mexUnlock            00000001800a0268     libmex:libmex.dll
 0002:00000270       __imp_mexMakeArrayPersistent 00000001800a0270     libmex:libmex.dll
 0002:00000278       \177libmex_NULL_THUNK_DATA 00000001800a0278     libmex:libmex.dll
 0002:00000280       __imp_muDoubleScalarFloor  00000001800a0280     libmwmathutil:libmwmathutil.dll
 0002:00000288       __imp_muDoubleScalarCos    00000001800a0288     libmwmathutil:libmwmathutil.dll
 0002:00000290       __imp_muDoubleScalarTan    00000001800a0290     libmwmathutil:libmwmathutil.dll
 0002:00000298       __imp_muDoubleScalarIsNaN  00000001800a0298     libmwmathutil:libmwmathutil.dll
 0002:000002a0       __imp_muDoubleScalarAbs    00000001800a02a0     libmwmathutil:libmwmathutil.dll
 0002:000002a8       __imp_muDoubleScalarAcos   00000001800a02a8     libmwmathutil:libmwmathutil.dll
 0002:000002b0       __imp_muDoubleScalarSqrt   00000001800a02b0     libmwmathutil:libmwmathutil.dll
 0002:000002b8       __imp_muDoubleScalarSin    00000001800a02b8     libmwmathutil:libmwmathutil.dll
 0002:000002c0       __imp_muDoubleScalarRound  00000001800a02c0     libmwmathutil:libmwmathutil.dll
 0002:000002c8       \177libmwmathutil_NULL_THUNK_DATA 00000001800a02c8     libmwmathutil:libmwmathutil.dll
 0002:000002d0       __imp_mxGetNaN             00000001800a02d0     libmx:libmx.dll
 0002:000002d8       __imp_mxGetString_730      00000001800a02d8     libmx:libmx.dll
 0002:000002e0       __imp_mxIsChar             00000001800a02e0     libmx:libmx.dll
 0002:000002e8       __imp_mxGetPr              00000001800a02e8     libmx:libmx.dll
 0002:000002f0       __imp_mxGetClassID         00000001800a02f0     libmx:libmx.dll
 0002:000002f8       __imp_mxIsNumeric          00000001800a02f8     libmx:libmx.dll
 0002:00000300       __imp_mxIsComplex          00000001800a0300     libmx:libmx.dll
 0002:00000308       __imp_mxGetN               00000001800a0308     libmx:libmx.dll
 0002:00000310       __imp_mxCreateLogicalScalar 00000001800a0310     libmx:libmx.dll
 0002:00000318       __imp_mxIsLogicalScalarTrue 00000001800a0318     libmx:libmx.dll
 0002:00000320       __imp_mxGetString_700      00000001800a0320     libmx:libmx.dll
 0002:00000328       __imp_mxCreateStringFromNChars_700 00000001800a0328     libmx:libmx.dll
 0002:00000330       __imp_mxGetElementSize     00000001800a0330     libmx:libmx.dll
 0002:00000338       __imp_mxCreateNumericArray_700 00000001800a0338     libmx:libmx.dll
 0002:00000340       __imp_mxGetNumberOfDimensions_700 00000001800a0340     libmx:libmx.dll
 0002:00000348       __imp_mxGetDimensions_700  00000001800a0348     libmx:libmx.dll
 0002:00000350       __imp_mxCalcSingleSubscript_700 00000001800a0350     libmx:libmx.dll
 0002:00000358       __imp_mxCreateStructArray_700 00000001800a0358     libmx:libmx.dll
 0002:00000360       __imp_mxCreateNumericMatrix_700 00000001800a0360     libmx:libmx.dll
 0002:00000368       __imp_mxArrayClassIDName   00000001800a0368     libmx:libmx.dll
 0002:00000370       __imp_mxGetImagData        00000001800a0370     libmx:libmx.dll
 0002:00000378       __imp_mxGetData            00000001800a0378     libmx:libmx.dll
 0002:00000380       __imp_mxIsEmpty            00000001800a0380     libmx:libmx.dll
 0002:00000388       __imp_mxIsNaN              00000001800a0388     libmx:libmx.dll
 0002:00000390       __imp_mxGetFieldNumber     00000001800a0390     libmx:libmx.dll
 0002:00000398       __imp_mxCreateStructMatrix_700 00000001800a0398     libmx:libmx.dll
 0002:000003a0       __imp_mxGetNumberOfFields  00000001800a03a0     libmx:libmx.dll
 0002:000003a8       __imp_mxGetFieldNameByNumber 00000001800a03a8     libmx:libmx.dll
 0002:000003b0       __imp_mxGetFieldByNumber_700 00000001800a03b0     libmx:libmx.dll
 0002:000003b8       __imp_mxSetFieldByNumber_700 00000001800a03b8     libmx:libmx.dll
 0002:000003c0       __imp_mxIsSparse           00000001800a03c0     libmx:libmx.dll
 0002:000003c8       __imp_mxGetLogicals        00000001800a03c8     libmx:libmx.dll
 0002:000003d0       __imp_mxIsClass            00000001800a03d0     libmx:libmx.dll
 0002:000003d8       __imp_mxIsA                00000001800a03d8     libmx:libmx.dll
 0002:000003e0       __imp_mxIsStruct           00000001800a03e0     libmx:libmx.dll
 0002:000003e8       __imp_mxGetNumberOfElements 00000001800a03e8     libmx:libmx.dll
 0002:000003f0       __imp_mxGetField_700       00000001800a03f0     libmx:libmx.dll
 0002:000003f8       __imp_mxAddField           00000001800a03f8     libmx:libmx.dll
 0002:00000400       __imp_mxSetField_700       00000001800a0400     libmx:libmx.dll
 0002:00000408       __imp_mxGetClassName       00000001800a0408     libmx:libmx.dll
 0002:00000410       __imp_mxGetCell_700        00000001800a0410     libmx:libmx.dll
 0002:00000418       __imp_mxSetCell_700        00000001800a0418     libmx:libmx.dll
 0002:00000420       __imp_mxCreateCellMatrix_700 00000001800a0420     libmx:libmx.dll
 0002:00000428       __imp_mxArrayToString      00000001800a0428     libmx:libmx.dll
 0002:00000430       __imp_mxFree               00000001800a0430     libmx:libmx.dll
 0002:00000438       __imp_mxCreateDoubleMatrix_700 00000001800a0438     libmx:libmx.dll
 0002:00000440       __imp_mxIsLogical          00000001800a0440     libmx:libmx.dll
 0002:00000448       __imp_mxGetScalar          00000001800a0448     libmx:libmx.dll
 0002:00000450       __imp_mxCalloc             00000001800a0450     libmx:libmx.dll
 0002:00000458       __imp_mxDuplicateArray     00000001800a0458     libmx:libmx.dll
 0002:00000460       __imp_mxDestroyArray       00000001800a0460     libmx:libmx.dll
 0002:00000468       __imp_mxCreateCellMatrix_730 00000001800a0468     libmx:libmx.dll
 0002:00000470       __imp_mxCreateStructMatrix_730 00000001800a0470     libmx:libmx.dll
 0002:00000478       __imp_mxCreateString       00000001800a0478     libmx:libmx.dll
 0002:00000480       __imp_mxSetField_730       00000001800a0480     libmx:libmx.dll
 0002:00000488       __imp_mxCreateDoubleMatrix_730 00000001800a0488     libmx:libmx.dll
 0002:00000490       __imp_mxCreateDoubleScalar 00000001800a0490     libmx:libmx.dll
 0002:00000498       __imp_mxGetM               00000001800a0498     libmx:libmx.dll
 0002:000004a0       \177libmx_NULL_THUNK_DATA  00000001800a04a0     libmx:libmx.dll
 0002:000004a8       __imp_utRealloc            00000001800a04a8     libut:libut.dll
 0002:000004b0       __imp_utCalloc             00000001800a04b0     libut:libut.dll
 0002:000004b8       __imp_utVSNprintf          00000001800a04b8     libut:libut.dll
 0002:000004c0       __imp_utFree               00000001800a04c0     libut:libut.dll
 0002:000004c8       __imp_utMalloc             00000001800a04c8     libut:libut.dll
 0002:000004d0       __imp_utCPUtime            00000001800a04d0     libut:libut.dll
 0002:000004d8       \177libut_NULL_THUNK_DATA  00000001800a04d8     libut:libut.dll
 0002:000004e0       __xc_a                     00000001800a04e0     MSVCRT:cinitexe.obj
 0002:000004e8       __xc_z                     00000001800a04e8     MSVCRT:cinitexe.obj
 0002:000004f0       __xi_a                     00000001800a04f0     MSVCRT:cinitexe.obj
 0002:00000500       __xi_z                     00000001800a0500     MSVCRT:cinitexe.obj
 0002:00000510       __real@41e37976c8000000    00000001800a0510     c1_Tetraedro_model_sem_sim_com_FK_heur.obj
 0002:00000518       __real@41e8c22453200000    00000001800a0518     c1_Tetraedro_model_sem_sim_com_FK_heur.obj
 0002:00000520       __real@41e16a030c400000    00000001800a0520     c1_Tetraedro_model_sem_sim_com_FK_heur.obj
 0002:00000528       __real@41c1aadc4d000000    00000001800a0528     c1_Tetraedro_model_sem_sim_com_FK_heur.obj
 0002:00000530       __real@4024000000000000    00000001800a0530     c1_Tetraedro_model_sem_sim_com_FK_heur.obj
 0002:00000538       __real@3ff0000000000000    00000001800a0538     c1_Tetraedro_model_sem_sim_com_FK_heur.obj
 0002:00000540       __real@4008000000000000    00000001800a0540     c1_Tetraedro_model_sem_sim_com_FK_heur.obj
 0002:00000548       __real@8000000000000000    00000001800a0548     c1_Tetraedro_model_sem_sim_com_FK_heur.obj
 0002:00000550       __real@4010000000000000    00000001800a0550     c1_Tetraedro_model_sem_sim_com_FK_heur.obj
 0002:00000558       __real@4018000000000000    00000001800a0558     c1_Tetraedro_model_sem_sim_com_FK_heur.obj
 0002:00000560       __real@402c000000000000    00000001800a0560     c1_Tetraedro_model_sem_sim_com_FK_heur.obj
 0002:00000568       __real@3cb0000000000000    00000001800a0568     c1_Tetraedro_model_sem_sim_com_FK_heur.obj
 0002:00000570       __real@0000000000000000    00000001800a0570     c1_Tetraedro_model_sem_sim_com_FK_heur.obj
 0002:00000578       __real@41ed76caa2e00000    00000001800a0578     c2_Tetraedro_model_sem_sim_com_FK_heur.obj
 0002:00000580       __real@416b08ed00000000    00000001800a0580     c2_Tetraedro_model_sem_sim_com_FK_heur.obj
 0002:00000588       __real@41ee26de3e600000    00000001800a0588     c2_Tetraedro_model_sem_sim_com_FK_heur.obj
 0002:00000590       __real@41d30ad802800000    00000001800a0590     c2_Tetraedro_model_sem_sim_com_FK_heur.obj
 0002:00000598       __real@4066800000000000    00000001800a0598     c2_Tetraedro_model_sem_sim_com_FK_heur.obj
 0002:000005a0       __real@400921fb54442d18    00000001800a05a0     c2_Tetraedro_model_sem_sim_com_FK_heur.obj
 0002:000005a8       __real@3fcf381d7dbf4880    00000001800a05a8     c2_Tetraedro_model_sem_sim_com_FK_heur.obj
 0002:000005b0       __real@4000000000000000    00000001800a05b0     c2_Tetraedro_model_sem_sim_com_FK_heur.obj
 0002:000005b8       __real@41ef13e5d2400000    00000001800a05b8     c3_Tetraedro_model_sem_sim_com_FK_heur.obj
 0002:000005c0       __real@419a7690b8000000    00000001800a05c0     c3_Tetraedro_model_sem_sim_com_FK_heur.obj
 0002:000005c8       __real@413cac7000000000    00000001800a05c8     c3_Tetraedro_model_sem_sim_com_FK_heur.obj
 0002:000005d0       __real@41c3bb3416800000    00000001800a05d0     c3_Tetraedro_model_sem_sim_com_FK_heur.obj
 0002:000005d8       __real@bff0000000000000    00000001800a05d8     c3_Tetraedro_model_sem_sim_com_FK_heur.obj
 0002:000005e0       __real@0010000000000000    00000001800a05e0     c3_Tetraedro_model_sem_sim_com_FK_heur.obj
 0002:000005e8       __real@41dd500bf8c00000    00000001800a05e8     c4_Tetraedro_model_sem_sim_com_FK_heur.obj
 0002:000005f0       __real@41cebce0e9000000    00000001800a05f0     c4_Tetraedro_model_sem_sim_com_FK_heur.obj
 0002:000005f8       __real@4190a371a0000000    00000001800a05f8     c4_Tetraedro_model_sem_sim_com_FK_heur.obj
 0002:00000600       __real@41ce6ee7aa000000    00000001800a0600     c4_Tetraedro_model_sem_sim_com_FK_heur.obj
 0002:00000608       __real@41e17d31a5200000    00000001800a0608     c6_Tetraedro_model_sem_sim_com_FK_heur.obj
 0002:00000610       __real@41edaa9788c00000    00000001800a0610     c6_Tetraedro_model_sem_sim_com_FK_heur.obj
 0002:00000618       __real@41e40793a5800000    00000001800a0618     c6_Tetraedro_model_sem_sim_com_FK_heur.obj
 0002:00000620       __real@41ecd849db000000    00000001800a0620     c6_Tetraedro_model_sem_sim_com_FK_heur.obj
 0002:00000628       __real@41e96e1cbde00000    00000001800a0628     c7_Tetraedro_model_sem_sim_com_FK_heur.obj
 0002:00000630       __real@41b51bd7ac000000    00000001800a0630     c7_Tetraedro_model_sem_sim_com_FK_heur.obj
 0002:00000638       __real@41d97bf707000000    00000001800a0638     c7_Tetraedro_model_sem_sim_com_FK_heur.obj
 0002:00000640       __real@41ea81cf1ce00000    00000001800a0640     c7_Tetraedro_model_sem_sim_com_FK_heur.obj
 0002:00000648       __real@402e000000000000    00000001800a0648     c7_Tetraedro_model_sem_sim_com_FK_heur.obj
 0002:00000650       __real@41def3b1f2000000    00000001800a0650     c8_Tetraedro_model_sem_sim_com_FK_heur.obj
 0002:00000658       __real@41d0819651c00000    00000001800a0658     c8_Tetraedro_model_sem_sim_com_FK_heur.obj
 0002:00000660       __real@41e2e73f45000000    00000001800a0660     c8_Tetraedro_model_sem_sim_com_FK_heur.obj
 0002:00000668       __real@41e378d53ea00000    00000001800a0668     c8_Tetraedro_model_sem_sim_com_FK_heur.obj
 0002:00000670       __real@408ce80000000000    00000001800a0670     c8_Tetraedro_model_sem_sim_com_FK_heur.obj
 0002:00000678       __real@4091940000000000    00000001800a0678     c8_Tetraedro_model_sem_sim_com_FK_heur.obj
 0002:00000680       __real@41d922edda400000    00000001800a0680     c9_Tetraedro_model_sem_sim_com_FK_heur.obj
 0002:00000688       __real@41c90849ad800000    00000001800a0688     c9_Tetraedro_model_sem_sim_com_FK_heur.obj
 0002:00000690       __real@41c0a57cbf000000    00000001800a0690     c9_Tetraedro_model_sem_sim_com_FK_heur.obj
 0002:00000698       __real@41e1158ec4c00000    00000001800a0698     c9_Tetraedro_model_sem_sim_com_FK_heur.obj
 0002:000006a0       __real@3f1a36e2eb1c432d    00000001800a06a0     c9_Tetraedro_model_sem_sim_com_FK_heur.obj
 0002:000006a8       __real@40c3880000000000    00000001800a06a8     c9_Tetraedro_model_sem_sim_com_FK_heur.obj
 0002:000006b0       __real@3f947ae147ae147b    00000001800a06b0     c9_Tetraedro_model_sem_sim_com_FK_heur.obj
 0002:000006b8       __real@40e5b36000000000    00000001800a06b8     c9_Tetraedro_model_sem_sim_com_FK_heur.obj
 0002:000006c0       __real@41bd1c1978000000    00000001800a06c0     c10_Tetraedro_model_sem_sim_com_FK_heur.obj
 0002:000006c8       __real@41cdd03f3a000000    00000001800a06c8     c10_Tetraedro_model_sem_sim_com_FK_heur.obj
 0002:000006d0       __real@41d73a81c4000000    00000001800a06d0     c10_Tetraedro_model_sem_sim_com_FK_heur.obj
 0002:000006d8       __real@41e4fd586fe00000    00000001800a06d8     c10_Tetraedro_model_sem_sim_com_FK_heur.obj
 0002:000006e0       __real@41d4f79b01c00000    00000001800a06e0     c13_Tetraedro_model_sem_sim_com_FK_heur.obj
 0002:000006e8       __real@41cf7bffa8800000    00000001800a06e8     c13_Tetraedro_model_sem_sim_com_FK_heur.obj
 0002:000006f0       __real@41ee625fcb400000    00000001800a06f0     c13_Tetraedro_model_sem_sim_com_FK_heur.obj
 0002:000006f8       __real@41dcac38b9c00000    00000001800a06f8     c13_Tetraedro_model_sem_sim_com_FK_heur.obj
 0002:00000700       __real@41e99ff4a4400000    00000001800a0700     c14_Tetraedro_model_sem_sim_com_FK_heur.obj
 0002:00000708       __real@41e3f327f4600000    00000001800a0708     c14_Tetraedro_model_sem_sim_com_FK_heur.obj
 0002:00000710       __real@41e82c6e0d600000    00000001800a0710     c14_Tetraedro_model_sem_sim_com_FK_heur.obj
 0002:00000718       __real@41db3c3bfe400000    00000001800a0718     c14_Tetraedro_model_sem_sim_com_FK_heur.obj
 0002:00000720       __real@401c000000000000    00000001800a0720     c14_Tetraedro_model_sem_sim_com_FK_heur.obj
 0002:00000728       __real@41b18a54cd000000    00000001800a0728     c15_Tetraedro_model_sem_sim_com_FK_heur.obj
 0002:00000730       __real@41e11d810fe00000    00000001800a0730     c15_Tetraedro_model_sem_sim_com_FK_heur.obj
 0002:00000738       __real@41c0da13aa000000    00000001800a0738     c15_Tetraedro_model_sem_sim_com_FK_heur.obj
 0002:00000740       __real@41e83779b4800000    00000001800a0740     c15_Tetraedro_model_sem_sim_com_FK_heur.obj
 0002:00000748       __real@41e0190871e00000    00000001800a0748     c19_Tetraedro_model_sem_sim_com_FK_heur.obj
 0002:00000750       __real@41e5835d66c00000    00000001800a0750     c19_Tetraedro_model_sem_sim_com_FK_heur.obj
 0002:00000758       __real@41c3d64cc6000000    00000001800a0758     c19_Tetraedro_model_sem_sim_com_FK_heur.obj
 0002:00000760       __real@419c06fe40000000    00000001800a0760     c19_Tetraedro_model_sem_sim_com_FK_heur.obj
 0002:00000768       __real@bfe0000000000000    00000001800a0768     c19_Tetraedro_model_sem_sim_com_FK_heur.obj
 0002:00000770       __real@41e3075bffe00000    00000001800a0770     c21_Tetraedro_model_sem_sim_com_FK_heur.obj
 0002:00000778       __real@41c7610db9000000    00000001800a0778     c21_Tetraedro_model_sem_sim_com_FK_heur.obj
 0002:00000780       __real@41e240a248e00000    00000001800a0780     c21_Tetraedro_model_sem_sim_com_FK_heur.obj
 0002:00000788       __real@41e168dd6b800000    00000001800a0788     c21_Tetraedro_model_sem_sim_com_FK_heur.obj
 0002:00000790       __real@4014000000000000    00000001800a0790     c21_Tetraedro_model_sem_sim_com_FK_heur.obj
 0002:000007a0       DYNAMIC_DIMENSION_DEF      00000001800a07a0     Tetraedro_model_sem_sim_com_FK_heur_sfun_registry.obj
 0002:000007c0       _ssBadLevel2InputAccessMsg 00000001800a07c0     Tetraedro_model_sem_sim_com_FK_heur_sfun_registry.obj
 0002:00000950       _ssBadLevel2DirectFeedMsg  00000001800a0950     Tetraedro_model_sem_sim_com_FK_heur_sfun_registry.obj
 0002:00000a90       _ssBadLevel2DirectFeedSolutionMsg 00000001800a0a90     Tetraedro_model_sem_sim_com_FK_heur_sfun_registry.obj
 0002:00000b00       _ssBadLevel2ZeroDirectFeedMsg 00000001800a0b00     Tetraedro_model_sem_sim_com_FK_heur_sfun_registry.obj
 0002:00000c40       _ssBadLevel2ZeroDirectFeedMsg2 00000001800a0c40     Tetraedro_model_sem_sim_com_FK_heur_sfun_registry.obj
 0002:00000d28       __real@41602cbca0000000    00000001800a0d28     Tetraedro_model_sem_sim_com_FK_heur_sfun_registry.obj
 0002:00000d30       __real@41cd764052800000    00000001800a0d30     Tetraedro_model_sem_sim_com_FK_heur_sfun.obj
 0002:00000d38       __real@41b38321d1000000    00000001800a0d38     Tetraedro_model_sem_sim_com_FK_heur_sfun.obj
 0002:00000d40       __real@41e49bf926e00000    00000001800a0d40     Tetraedro_model_sem_sim_com_FK_heur_sfun.obj
 0002:00000d48       __real@41ec79bb58c00000    00000001800a0d48     Tetraedro_model_sem_sim_com_FK_heur_sfun.obj
 0002:00000d50       __real@41ed08af7be00000    00000001800a0d50     Tetraedro_model_sem_sim_com_FK_heur_sfun.obj
 0002:00000d58       __real@41d03fc151000000    00000001800a0d58     Tetraedro_model_sem_sim_com_FK_heur_sfun.obj
 0002:00000d60       __real@41c439d4aa000000    00000001800a0d60     Tetraedro_model_sem_sim_com_FK_heur_sfun.obj
 0002:00000d68       __real@41ea8f1e72e00000    00000001800a0d68     Tetraedro_model_sem_sim_com_FK_heur_sfun.obj
 0002:00000d70       __real@41e3b71e07200000    00000001800a0d70     Tetraedro_model_sem_sim_com_FK_heur_sfun.obj
 0002:00000d78       __real@41e9593bea200000    00000001800a0d78     Tetraedro_model_sem_sim_com_FK_heur_sfun.obj
 0002:00000d80       __real@4179a5d3e0000000    00000001800a0d80     Tetraedro_model_sem_sim_com_FK_heur_sfun.obj
 0002:00000d88       __real@41e0b3429fa00000    00000001800a0d88     Tetraedro_model_sem_sim_com_FK_heur_sfun.obj
 0002:00000d90       __real@41ef061647200000    00000001800a0d90     Tetraedro_model_sem_sim_com_FK_heur_sfun.obj
 0002:00000d98       __real@41e7d01355c00000    00000001800a0d98     Tetraedro_model_sem_sim_com_FK_heur_sfun.obj
 0002:00000da0       __real@41cca3bff8000000    00000001800a0da0     Tetraedro_model_sem_sim_com_FK_heur_sfun.obj
 0002:00000da8       __real@41ecea4f09a00000    00000001800a0da8     Tetraedro_model_sem_sim_com_FK_heur_sfun.obj
 0002:00000db0       ??_C@_00CNPNBAHC@?$AA@     00000001800a0db0     sfc_mex:sfc_mex.obj
 0002:00000db4       ??_C@_05DGLCPCBN@?$CFsx?$CFd?$AA@ 00000001800a0db4     sfc_mex:sfc_mex.obj
 0002:00000dbc       ??_C@_02DPKJAMEF@?$CFd?$AA@ 00000001800a0dbc     sfc_mex:sfc_mex.obj
 0002:00000dc0       ??_C@_0CC@DJOAOECF@Unknown?5MATLAB?5error?5encountered@ 00000001800a0dc0     sfc_mex:sfc_mex.obj
 0002:00000de8       ??_C@_0CJ@DAIIKGLI@?$CFs?5in?5?$CFs?5should?5never?5be?5called?5@ 00000001800a0de8     sfc_mex:sfc_mex.obj
 0002:00000e18       ??_C@_0CE@ICKLNELB@Error?5calling?5MATLAB?5function?5?8?$CF@ 00000001800a0e18     sfc_mex:sfc_mex.obj
 0002:00000e3c       ??_C@_02DKCKIIND@?$CFs?$AA@ 00000001800a0e3c     sfc_mex:sfc_mex.obj
 0002:00000e40       ??_C@_07PHDIELCI@lasterr?$AA@ 00000001800a0e40     sfc_mex:sfc_mex.obj
 0002:00000e48       ??_C@_09HKCBALOK@embedded?4?$AA@ 00000001800a0e48     sfc_mex:sfc_mex.obj
 0002:00000e54       ??_C@_06BNJCAIGJ@double?$AA@ 00000001800a0e54     sfc_mex:sfc_mex.obj
 0002:00000e5c       ??_C@_06EJFMBPJF@single?$AA@ 00000001800a0e5c     sfc_mex:sfc_mex.obj
 0002:00000e64       ??_C@_06KKKLBFKN@uint64?$AA@ 00000001800a0e64     sfc_mex:sfc_mex.obj
 0002:00000e6c       ??_C@_05DIFFJEPM@int64?$AA@ 00000001800a0e6c     sfc_mex:sfc_mex.obj
 0002:00000e74       ??_C@_06PKDKHAMA@uint32?$AA@ 00000001800a0e74     sfc_mex:sfc_mex.obj
 0002:00000e7c       ??_C@_05GIMEPBJB@int32?$AA@ 00000001800a0e7c     sfc_mex:sfc_mex.obj
 0002:00000e84       ??_C@_06JNNCGBKK@uint16?$AA@ 00000001800a0e84     sfc_mex:sfc_mex.obj
 0002:00000e8c       ??_C@_05PCMOAPL@int16?$AA@ 00000001800a0e8c     sfc_mex:sfc_mex.obj
 0002:00000e94       ??_C@_05BOGOCLFF@uint8?$AA@ 00000001800a0e94     sfc_mex:sfc_mex.obj
 0002:00000e9c       ??_C@_04DCGBOBJJ@int8?$AA@ 00000001800a0e9c     sfc_mex:sfc_mex.obj
 0002:00000ea4       ??_C@_04KBDJOJNB@?$FL?$CFd?$FN?$AA@ 00000001800a0ea4     sfc_mex:sfc_mex.obj
 0002:00000eb0       ??_C@_0CD@NFPEPNBJ@Cannot?5add?5field?5?$CFs?5to?5struct?5?$CFs@ 00000001800a0eb0     sfc_mex:sfc_mex.obj
 0002:00000ed8       ??_C@_0CF@PLDCCEBG@Cannot?5get?5field?5?$CFs?5from?5struct?5@ 00000001800a0ed8     sfc_mex:sfc_mex.obj
 0002:00000f00       ??_C@_0CO@MFJLJCHI@Struct?5array?5?8?$CFs?8?5does?5not?5have?5@ 00000001800a0f00     sfc_mex:sfc_mex.obj
 0002:00000f30       ??_C@_0DF@IPGEGIDM@Object?5?8?$CFs?8?5is?5not?5a?5struct?3?5can@ 00000001800a0f30     sfc_mex:sfc_mex.obj
 0002:00000f68       ??_C@_0BL@KEKJNNL@MATLAB?5expression?5?8?$CFs?8?5?$CFs?4?$AA@ 00000001800a0f68     sfc_mex:sfc_mex.obj
 0002:00000f90       ??_C@_0GH@JOEOEBFA@Size?5mismatch?5for?5?8?$CFs?8?5on?5dimens@ 00000001800a0f90     sfc_mex:sfc_mex.obj
 0002:00000ff8       ??_C@_04IAGNFIBA@size?$AA@ 00000001800a0ff8     sfc_mex:sfc_mex.obj
 0002:00001000       ??_C@_0DN@DNLDLJNN@is?5not?5of?5the?5correct?5class?3?5exp@ 00000001800a1000     sfc_mex:sfc_mex.obj
 0002:00001040       ??_C@_06POLMGHPK@isreal?$AA@ 00000001800a1040     sfc_mex:sfc_mex.obj
 0002:00001048       ??_C@_0CC@EDDDCJDC@is?5not?5of?5the?5correct?5complexnes@ 00000001800a1048     sfc_mex:sfc_mex.obj
 0002:00001070       ??_C@_0CB@POBCEEOP@is?5not?5of?5the?5correct?5sparseness@ 00000001800a1070     sfc_mex:sfc_mex.obj
 0002:00001098       ??_C@_0CC@JOFDGEBC@is?5not?5of?5the?5correct?5numerictyp@ 00000001800a1098     sfc_mex:sfc_mex.obj
 0002:000010c0       ??_C@_07MIMONDDE@isequal?$AA@ 00000001800a10c0     sfc_mex:sfc_mex.obj
 0002:000010c8       ??_C@_0M@NAPEIPJI@numerictype?$AA@ 00000001800a10c8     sfc_mex:sfc_mex.obj
 0002:000010d8       ??_C@_0BN@IMIABIKK@is?5not?5of?5the?5correct?5fimath?$AA@ 00000001800a10d8     sfc_mex:sfc_mex.obj
 0002:000010f8       ??_C@_06LJOKAFHF@fimath?$AA@ 00000001800a10f8     sfc_mex:sfc_mex.obj
 0002:00001100       ??_C@_0EP@IAFBLFNF@Stateflow?5Internal?5Error?3?5?6Error@ 00000001800a1100     sfc_mex:sfc_mex.obj
 0002:00001150       ??_C@_02GFKODMMF@sf?$AA@   00000001800a1150     sfc_mex:sfc_mex.obj
 0002:00001158       ??_C@_08MJJBNONC@mxDecode?$AA@ 00000001800a1158     sfc_mex:sfc_mex.obj
 0002:00001170       ??_C@_0GH@OOBFJADG@Simulation?5stopped?5due?5to?5out?5of@ 00000001800a1170     sfc_mex:sfc_mex.obj
 0002:000011e0       ??_C@_0HC@JODLBNFO@Simulation?5stopped?5due?5to?5size?5m@ 00000001800a11e0     sfc_mex:sfc_mex.obj
 0002:00001260       ??_C@_0HC@PPOAOPGB@Simulation?5stopped?5due?5to?5size?5m@ 00000001800a1260     sfc_mex:sfc_mex.obj
 0002:000012e0       ??_C@_0JM@OFMOAAGL@Simulation?5stopped?5due?5to?5size?5m@ 00000001800a12e0     sfc_mex:sfc_mex.obj
 0002:00001380       ??_C@_0KC@ODCGHMPH@Simulation?5stopped?5due?5to?5size?5o@ 00000001800a1380     sfc_mex:sfc_mex.obj
 0002:00001430       ??_C@_0GO@BKNPNGBP@Subscripted?5assignment?5dimension@ 00000001800a1430     sfc_mex:sfc_mex.obj
 0002:000014a0       ??_C@_0DJ@MEDANBMA@Enable?5debugging?5to?5pinpoint?5the@ 00000001800a14a0     sfc_mex:sfc_mex.obj
 0002:000014dc       ??_C@_01CLKCMJKC@?5?$AA@   00000001800a14dc     sfc_mex:sfc_mex.obj
 0002:000014e0       ??_C@_0BAO@DDKKHLGF@Matrix?$CImatrix?$CJ?5subscript?5turned?5@ 00000001800a14e0     sfc_mex:sfc_mex.obj
 0002:000015f0       ??_C@_0BAO@MGKOAKHL@Vector?$CIvector?$CJ?5subscript?5turned?5@ 00000001800a15f0     sfc_mex:sfc_mex.obj
 0002:00001700       ??_C@_0FA@KAHDAHHI@Cannot?5determine?5the?5exact?5numbe@ 00000001800a1700     sfc_mex:sfc_mex.obj
 0002:00001750       ??_C@_0FC@HJKNPCCF@Negative?5value?5detected?4?5Enable?5@ 00000001800a1750     sfc_mex:sfc_mex.obj
 0002:000017a8       ??_C@_0DK@JJKHINMK@Overflow?5detected?4?5Enable?5debugg@ 00000001800a17a8     sfc_mex:sfc_mex.obj
 0002:000017f0       ??_C@_0EA@POIJMBCP@Divide?5by?5zero?5detected?4?5Enable?5@ 00000001800a17f0     sfc_mex:sfc_mex.obj
 0002:00001830       ??_C@_0EK@CFEMECLL@Nonconforming?5enum?5value?5detecte@ 00000001800a1830     sfc_mex:sfc_mex.obj
 0002:00001880       ??_C@_0EE@BPGAOMO@Size?5mismatch?5for?5MATLAB?5express@ 00000001800a1880     sfc_mex:sfc_mex.obj
 0002:000018d0       ??_C@_0EJ@KLNPHOFG@Dimension?5of?5fixed?5size?5one?5?$CI1?$CJ?5@ 00000001800a18d0     sfc_mex:sfc_mex.obj
 0002:00001920       ??_C@_07JFPGMOK@fprintf?$AA@ 00000001800a1920     sfc_mex:sfc_mex.obj
 0002:00001930       ??_C@_0FE@EHCFPDEG@In?5MATLAB?5expression?5?8?$CFs?8?0?5field@ 00000001800a1930     sfc_mex:sfc_mex.obj
 0002:00001988       ??_C@_0DE@IJIFCHLH@In?5MATLAB?5expression?5?8?$CFs?8?0?5field@ 00000001800a1988     sfc_mex:sfc_mex.obj
 0002:000019c0       ??_C@_0FK@JKPMKGDE@MATLAB?5expression?5?8?$CFs?8?5does?5not?5@ 00000001800a19c0     sfc_mex:sfc_mex.obj
 0002:00001a1c       ??_C@_06PBJBIPGK@struct?$AA@ 00000001800a1a1c     sfc_mex:sfc_mex.obj
 0002:00001a28       ??_C@_0O@NFNPPCGN@isfimathlocal?$AA@ 00000001800a1a28     sfc_mex:sfc_mex.obj
 0002:00001a38       ??_C@_0M@MLCGNPLD@embedded?4fi?$AA@ 00000001800a1a38     sfc_mex:sfc_mex.obj
 0002:00001a48       ??_C@_0M@EGMNDJHO@?$CFs?5?$DN?5?$CF?415g?6?$AA@ 00000001800a1a48     sfc_mex:sfc_mex.obj
 0002:00001a54       ??_C@_03OFAPEBGM@?$CFs?6?$AA@ 00000001800a1a54     sfc_mex:sfc_mex.obj
 0002:00001a58       ??_C@_0CL@LLBJDFID@failed?5sf_assertion?5in?5?$CFs?5at?5lin@ 00000001800a1a58     sfc_mex:sfc_mex.obj
 0002:00001a90       ??_C@_0EJ@MIHEOKKA@?8?$CFs?8?3?5Array?5with?5number?5of?5dimen@ 00000001800a1a90     sfc_mex:sfc_mex.obj
 0002:00001ae0       ??_C@_09JCLLFAHO@sfc_mex?4c?$AA@ 00000001800a1ae0     sfc_mex:sfc_mex.obj
 0002:00001af0       ??_C@_0O@FCFMOEOA@aNumDims?5?$DO?$DN?50?$AA@ 00000001800a1af0     sfc_mex:sfc_mex.obj
 0002:00001b00       ??_C@_0CK@KDIMGCCA@?8?$CFs?8?3?5Sparse?5matrices?5are?5not?5su@ 00000001800a1b00     sfc_mex:sfc_mex.obj
 0002:00001b30       ??_C@_0CI@KBLJAMNB@MATLAB?5expression?5?8?$CFs?8?5is?5not?5nu@ 00000001800a1b30     sfc_mex:sfc_mex.obj
 0002:00001b58       ??_C@_0P@LCMMCGDM@aSrcMx?5?$CB?$DN?5NULL?$AA@ 00000001800a1b58     sfc_mex:sfc_mex.obj
 0002:00001b70       ??_C@_0EI@HJNNACGI@Eval?5of?5MATLAB?5expression?5?8?$CFs?8?5i@ 00000001800a1b70     sfc_mex:sfc_mex.obj
 0002:00001bb8       ??_C@_0DM@BJICAGGK@Stateflow?5currently?5only?5support@ 00000001800a1bb8     sfc_mex:sfc_mex.obj
 0002:00001bf4       ??_C@_05LAPONLG@false?$AA@ 00000001800a1bf4     sfc_mex:sfc_mex.obj
 0002:00001bfc       ??_C@_03LHCJEHON@nan?$AA@  00000001800a1bfc     sfc_mex:sfc_mex.obj
 0002:00001c00       ??_C@_04BHIIPFEC@base?$AA@ 00000001800a1c00     sfc_mex:sfc_mex.obj
 0002:00001c08       ??_C@_06PLMANNP@evalin?$AA@ 00000001800a1c08     sfc_mex:sfc_mex.obj
 0002:00001c10       ??_C@_06GFECGKEO@caller?$AA@ 00000001800a1c10     sfc_mex:sfc_mex.obj
 0002:00001c18       ??_C@_0CM@LOMLNLMC@Invalid?5workspace?5type?5for?5sf_ma@ 00000001800a1c18     sfc_mex:sfc_mex.obj
 0002:00001c44       ??_C@_01GBGANLPD@0?$AA@    00000001800a1c44     sfc_mex:sfc_mex.obj
 0002:00001c48       ??_C@_06FJKEMHGD@global?$AA@ 00000001800a1c48     sfc_mex:sfc_mex.obj
 0002:00001c50       ??_C@_08KHPDDPHG@getfield?$AA@ 00000001800a1c50     sfc_mex:sfc_mex.obj
 0002:00001c5c       ??_C@_05LPIJGKJ@Value?$AA@ 00000001800a1c5c     sfc_mex:sfc_mex.obj
 0002:00001c68       ??_C@_0BH@HNIMIIFD@Unknown?5workspace?5type?$AA@ 00000001800a1c68     sfc_mex:sfc_mex.obj
 0002:00001c80       ??_C@_0DA@IPMLFPJI@MATLAB?5expression?5?8?$CFs?8?5could?5not@ 00000001800a1c80     sfc_mex:sfc_mex.obj
 0002:00001cb0       ??_C@_0EB@HHPLBHBA@Parameter?5value?5out?5of?5bounds?4?5?$CF@ 00000001800a1cb0     sfc_mex:sfc_mex.obj
 0002:00001d00       __mask@@NegDouble@         00000001800a1d00     sfc_mex:sfc_mex.obj
 0002:00001d10       ??_C@_0CB@DBMOOMDL@Unsupported?5class?5type?5?$CFs?5for?5?$CFs@ 00000001800a1d10     sfc_mex:sfc_mex.obj
 0002:00001d38       ??_C@_0BI@OPNKAIOC@mxIsComplex?$CImxArrayPtr?$CJ?$AA@ 00000001800a1d38     sfc_mex:sfc_mex.obj
 0002:00001d50       ??_C@_0GA@OFLPCMBM@Stateflow?5Runtime?5Warning?3?5Loss?5@ 00000001800a1d50     sfc_mex:sfc_mex.obj
 0002:00001db0       __real@3810000000000000    00000001800a1db0     sfc_mex:sfc_mex.obj
 0002:00001db8       __real@47efffffe0000000    00000001800a1db8     sfc_mex:sfc_mex.obj
 0002:00001dc0       __real@c060000000000000    00000001800a1dc0     sfc_mex:sfc_mex.obj
 0002:00001dc8       __real@405fc00000000000    00000001800a1dc8     sfc_mex:sfc_mex.obj
 0002:00001dd0       __real@406fe00000000000    00000001800a1dd0     sfc_mex:sfc_mex.obj
 0002:00001dd8       __real@c0e0000000000000    00000001800a1dd8     sfc_mex:sfc_mex.obj
 0002:00001de0       __real@40dfffc000000000    00000001800a1de0     sfc_mex:sfc_mex.obj
 0002:00001de8       __real@40efffe000000000    00000001800a1de8     sfc_mex:sfc_mex.obj
 0002:00001df0       __real@c1e0000000000000    00000001800a1df0     sfc_mex:sfc_mex.obj
 0002:00001df8       __real@41dfffffffc00000    00000001800a1df8     sfc_mex:sfc_mex.obj
 0002:00001e00       __real@41efffffffe00000    00000001800a1e00     sfc_mex:sfc_mex.obj
 0002:00001e08       ??_C@_0DO@JIJMNCAH@Class?5mismatch?5for?5variable?5?8?$CFs?8@ 00000001800a1e08     sfc_mex:sfc_mex.obj
 0002:00001e48       ??_C@_03BBKEAIF@?$DP?$DP?$DP?$AA@ 00000001800a1e48     sfc_mex:sfc_mex.obj
 0002:00001e50       ??_C@_0DE@HICLJLJO@Assignment?5of?5complex?5data?5to?5no@ 00000001800a1e50     sfc_mex:sfc_mex.obj
 0002:00001e88       ??_C@_0CF@NHFFCIEB@MATLAB?5function?5?8?$CFs?8?5returned?5NU@ 00000001800a1e88     sfc_mex:sfc_mex.obj
 0002:00001eb0       ??_C@_0GP@JPKMBIEI@Array?5bounds?5error?5in?5MATLAB?5exp@ 00000001800a1eb0     sfc_mex:sfc_mex.obj
 0002:00001f20       ??_C@_0P@FLJFOPHI@pIndex?$FLi?$FN?5?$DO?$DN?50?$AA@ 00000001800a1f20     sfc_mex:sfc_mex.obj
 0002:00001f30       ??_C@_0DI@IGEABFHB@MATLAB?5expression?5?8?$CFs?8?5has?5?$CFd?5di@ 00000001800a1f30     sfc_mex:sfc_mex.obj
 0002:00001f68       ??_C@_0L@EFLJKPA@mxArrayPtr?$AA@ 00000001800a1f68     sfc_mex:sfc_mex.obj
 0002:00001f78       ??_C@_0CK@FHKKOEPH@numDims?5?$DO?$DN?50?5?$CG?$CG?5numDims?5?$DM?$DN?5MAX_D@ 00000001800a1f78     sfc_mex:sfc_mex.obj
 0002:00001fb0       ??_C@_0EM@MPIDLJBF@MATLAB?5expression?5?8?$CFs?8?5subscript@ 00000001800a1fb0     sfc_mex:sfc_mex.obj
 0002:00001ffc       ??_C@_04IGKKBJEE@?$DN?$CFg?$DL?$AA@ 00000001800a1ffc     sfc_mex:sfc_mex.obj
 0002:00002004       ??_C@_01PKGAHCOL@?$CJ?$AA@ 00000001800a2004     sfc_mex:sfc_mex.obj
 0002:00002008       ??_C@_03LEIBKMN@?0?$CFd?$AA@ 00000001800a2008     sfc_mex:sfc_mex.obj
 0002:0000200c       ??_C@_03IECKINJK@?$CI?$CFd?$AA@ 00000001800a200c     sfc_mex:sfc_mex.obj
 0002:00002010       ??_C@_0FB@HKJNNBFK@Stateflow?5ml?5type?5data?5?8?$CFs?8?5subs@ 00000001800a2010     sfc_mex:sfc_mex.obj
 0002:00002068       ??_C@_0CN@HPHHCDPK@Stateflow?5ml?5type?5data?5?8?$CFs?8?5is?5n@ 00000001800a2068     sfc_mex:sfc_mex.obj
 0002:00002098       ??_C@_0CG@JIOBALFE@Stateflow?5ml?5type?5data?5?8?$CFs?8?5is?5e@ 00000001800a2098     sfc_mex:sfc_mex.obj
 0002:000020c0       ??_C@_0BD@GAHDCPBG@mxArrayPtr?5?$CB?$DN?5NULL?$AA@ 00000001800a20c0     sfc_mex:sfc_mex.obj
 0002:000020d8       ??_C@_0CF@HCINMAFF@result?5?$DN?5mxCreateDoubleScalar?$CIva@ 00000001800a20d8     sfc_mex:sfc_mex.obj
 0002:00002100       ??_C@_0BF@GAJKLFOH@fixpt_lower_mx_array?$AA@ 00000001800a2100     sfc_mex:sfc_mex.obj
 0002:00002118       ??_C@_02FINOOIBE@Cg?$AA@   00000001800a2118     sfc_mex:sfc_mex.obj
 0002:00002120       ??_C@_09GIFEIFFL@sfprivate?$AA@ 00000001800a2120     sfc_mex:sfc_sf.obj
 0002:00002130       ??_C@_0CC@JDELABLI@get_machine_and_chart_file_numbe@ 00000001800a2130     sfc_mex:sfc_sf.obj
 0002:00002158       ??_C@_0BO@JCKKMPIB@get_sfun_block_specialization?$AA@ 00000001800a2158     sfc_mex:sfc_sf.obj
 0002:00002180       ??_C@_0FP@OGBKADON@The?5chart?5name?5?4?4?4?$CFs?5is?5not?5pres@ 00000001800a2180     sfc_mex:sfc_sf.obj
 0002:000021e0       ??_C@_0FM@KEMGDKHM@The?5chart?5name?5?$CFs?5is?5not?5present@ 00000001800a21e0     sfc_mex:sfc_sf.obj
 0002:00002240       ??_C@_0BD@NMFAPBEK@mdlInitializeSizes?$AA@ 00000001800a2240     sfc_mex:sfc_sf.obj
 0002:00002254       ??_C@_06EJFCAODB@sfc_sf?$AA@ 00000001800a2254     sfc_mex:sfc_sf.obj
 0002:00002260       ??_C@_0BJ@PBIFPMMD@mdlInitializeSampleTimes?$AA@ 00000001800a2260     sfc_mex:sfc_sf.obj
 0002:00002280       ??_C@_0FI@CPPGBPPK@Stateflow?5Internal?5Error?3?5?6Error@ 00000001800a2280     sfc_mex:sfc_sf.obj
 0002:000022d8       ??_C@_0CN@GACCLMJH@preload_infomatman_for_rtw_optim@ 00000001800a22d8     sfc_mex:sfc_sf.obj
 0002:00002308       ??_C@_07CFINJGKH@Private?$AA@ 00000001800a2308     sfc_mex:sfc_sf.obj
 0002:00002310       ??_C@_0EK@MLFDFPLJ@Stateflow?5Internal?5Error?3?5?6Inter@ 00000001800a2310     sfc_mex:sfc_sf.obj
 0002:00002360       ??_C@_0BA@OAHFHIKJ@updateBuildInfo?$AA@ 00000001800a2360     sfc_mex:sfc_sf.obj
 0002:00002370       ??_C@_0BG@PNKGMGHF@rtw_optimization_info?$AA@ 00000001800a2370     sfc_mex:sfc_sf.obj
 0002:00002390       ??_C@_0GC@KEKNFKIJ@Stateflow?5Internal?5Error?3?5?6rtw_o@ 00000001800a2390     sfc_mex:sfc_sf.obj
 0002:000023f8       ??_C@_0BA@PHPHFLPF@chart_inlinable?$AA@ 00000001800a23f8     sfc_mex:sfc_sf.obj
 0002:00002410       ??_C@_0MB@KGDKCEKF@Stateflow?5Internal?5Error?3?5?6Numbe@ 00000001800a2410     sfc_mex:sfc_sf.obj
 0002:000024e0       ??_C@_0GN@DNCJEGHD@Stateflow?5Internal?5Error?3?5?6Error@ 00000001800a24e0     sfc_mex:sfc_sf.obj
 0002:00002550       ??_C@_0CA@GOKFFBBO@outputEventsWithMultipleCallers?$AA@ 00000001800a2550     sfc_mex:sfc_sf.obj
 0002:00002570       ??_C@_0LH@NDHODBLK@Stateflow?5Internal?5Error?3?5?6Numbe@ 00000001800a2570     sfc_mex:sfc_sf.obj
 0002:00002628       ??_C@_0BB@GEEDBOGK@reusable_outputs?$AA@ 00000001800a2628     sfc_mex:sfc_sf.obj
 0002:00002640       ??_C@_0II@FEBCOBGA@Stateflow?5Internal?5Error?3?5?6Numbe@ 00000001800a2640     sfc_mex:sfc_sf.obj
 0002:000026c8       ??_C@_0BG@HMMHPAKE@expressionable_inputs?$AA@ 00000001800a26c8     sfc_mex:sfc_sf.obj
 0002:000026e0       ??_C@_0BB@MBBOKNEL@listen_for_ctrlc?$AA@ 00000001800a26e0     sfc_mex:sfc_sf.obj
 0002:000026f4       ??_C@_03LOANPFAI@mex?$AA@  00000001800a26f4     sfc_mex:sfc_sf.obj
 0002:000026f8       ??_C@_07HLHKBCBI@sfdebug?$AA@ 00000001800a26f8     sfc_mex:sfc_sf.obj
 0002:00002700       ??_C@_07MFNNEMOJ@drawnow?$AA@ 00000001800a2700     sfc_mex:sfc_sf.obj
 0002:00002708       __real@3fd3333333333333    00000001800a2708     sfc_mex:sfc_sf.obj
 0002:00002710       ??_C@_0DG@OJBAPEMA@Internal?5Error?3?5paramsIndex?5?$DN?5?$CFd@ 00000001800a2710     sfc_mex:sfc_sf.obj
 0002:00002750       ??_C@_0BAI@GPDPHGCD@Cannot?5broadcast?5function?5call?5o@ 00000001800a2750     sfc_mex:sfc_sf.obj
 0002:00002860       ??_C@_0BBC@NGKHEJAF@Cannot?5enable?1disable?5function?5c@ 00000001800a2860     sfc_mex:sfc_sf.obj
 0002:00002978       ??_C@_08HDNBGBNP@bitWidth?$AA@ 00000001800a2978     sfc_mex:sfc_sf.obj
 0002:00002988       ??_C@_0BG@MDDFDLDC@resolveToSignalObject?$AA@ 00000001800a2988     sfc_mex:sfc_sf.obj
 0002:000029a0       ??_C@_07KHBFOCMF@varName?$AA@ 00000001800a29a0     sfc_mex:sfc_sf.obj
 0002:000029a8       ??_C@_09LHPHPAOE@isComplex?$AA@ 00000001800a29a8     sfc_mex:sfc_sf.obj
 0002:000029b8       ??_C@_0CM@OAMAJMIG@Failed?5to?5register?5type?5?8?$CFs?8?5wit@ 00000001800a29b8     sfc_mex:sfc_sf.obj
 0002:000029e8       ??_C@_08MLIGMCAH@typeSize?$AA@ 00000001800a29e8     sfc_mex:sfc_sf.obj
 0002:000029f4       ??_C@_05OOLPEHEB@void?$CK?$AA@ 00000001800a29f4     sfc_mex:sfc_sf.obj
 0002:00002a00       ??_C@_0BI@OFLHAMB@vector_of_void_pointers?$AA@ 00000001800a2a00     sfc_mex:sfc_sf.obj
 0002:00002a18       ??_C@_04NBAGBPGE@bias?$AA@ 00000001800a2a18     sfc_mex:sfc_sf.obj
 0002:00002a20       ??_C@_08EGJNFMPO@exponent?$AA@ 00000001800a2a20     sfc_mex:sfc_sf.obj
 0002:00002a2c       ??_C@_05LAHHKLJI@slope?$AA@ 00000001800a2a2c     sfc_mex:sfc_sf.obj
 0002:00002a38       ??_C@_0L@EMMELFNN@wordLength?$AA@ 00000001800a2a38     sfc_mex:sfc_sf.obj
 0002:00002a48       ??_C@_08EJEJGLGA@isSigned?$AA@ 00000001800a2a48     sfc_mex:sfc_sf.obj
 0002:00002a58       ??_C@_0P@MJIKALJF@isScaledDouble?$AA@ 00000001800a2a58     sfc_mex:sfc_sf.obj
 0002:00002a68       ??_C@_05LFJLPLPG@fixpt?$AA@ 00000001800a2a68     sfc_mex:sfc_sf.obj
 0002:00002a70       ??_C@_07GOBOHMJA@boolean?$AA@ 00000001800a2a70     sfc_mex:sfc_sf.obj
 0002:00002a78       ??_C@_04GPMDFGEJ@type?$AA@ 00000001800a2a78     sfc_mex:sfc_sf.obj
 0002:00002a80       ??_C@_0O@EIPJLOAA@extModeUpload?$AA@ 00000001800a2a80     sfc_mex:sfc_sf.obj
 0002:00002a90       __real@43e0000000000000    00000001800a2a90     sfc_mex:sfc_sf.obj
 0002:00002a98       ??_C@_03PLHFFLIH@ptr?$AA@  00000001800a2a98     sfc_mex:sfc_sf.obj
 0002:00002aa0       ??_C@_0BC@HMCIKMPA@requiredStackSize?$AA@ 00000001800a2aa0     sfc_mex:sfc_sf.obj
 0002:00002ab8       ??_C@_0CB@OCGIMAKA@RegisterMachineParentedDataDwork@ 00000001800a2ab8     sfc_mex:sfc_sf.obj
 0002:00002ae0       ??_C@_0BD@LFPAKDFC@machineDataVarInfo?$AA@ 00000001800a2ae0     sfc_mex:sfc_sf.obj
 0002:00002af8       ??_C@_09GAJBGLOB@dworkInfo?$AA@ 00000001800a2af8     sfc_mex:sfc_sf.obj
 0002:00002b08       sf_uint_bits_log2          00000001800a2b08     sfc_debug:sfcdebug.obj
 0002:00002b28       ??_C@_04GKMJMOBJ@disp?$AA@ 00000001800a2b28     sfc_debug:sfcdebug.obj
 0002:00002b30       ??_C@_0DJ@GEKCDEED@Runtime?5size?5mismatch?5for?5dimens@ 00000001800a2b30     sfc_debug:sfcdebug.obj
 0002:00002b70       ??_C@_0N@IHFJDIPG@load_machine?$AA@ 00000001800a2b70     sfc_debug:sfcdebug.obj
 0002:00002b80       ??_C@_0P@NOFOFJMO@ScriptCacheGet?$AA@ 00000001800a2b80     sfc_debug:sfcdebug.obj
 0002:00002b90       ??_C@_0P@HCIIHGKN@simulationTime?$AA@ 00000001800a2b90     sfc_debug:sfcdebug.obj
 0002:00002ba0       ??_C@_06MBJIKMHL@isSend?$AA@ 00000001800a2ba0     sfc_debug:sfcdebug.obj
 0002:00002ba8       ??_C@_0BC@HKLNGIIJ@messagePortNumber?$AA@ 00000001800a2ba8     sfc_debug:sfcdebug.obj
 0002:00002bc0       ??_C@_07KGNNMFDL@chartId?$AA@ 00000001800a2bc0     sfc_debug:sfcdebug.obj
 0002:00002bc8       ??_C@_0BD@LPIHANBP@State?5Entry?5Action?$AA@ 00000001800a2bc8     sfc_debug:sfcdebug.obj
 0002:00002be0       ??_C@_0BE@EDAKPKIF@State?5During?5Action?$AA@ 00000001800a2be0     sfc_debug:sfcdebug.obj
 0002:00002bf8       ??_C@_0BC@FKIGLKJE@State?5Exit?5Action?$AA@ 00000001800a2bf8     sfc_debug:sfcdebug.obj
 0002:00002c0c       ??_C@_04CGFJFPFD@none?$AA@ 00000001800a2c0c     sfc_debug:sfcdebug.obj
 0002:00002c18       ??_C@_0BD@JMJALEKH@Transition?5Trigger?$AA@ 00000001800a2c18     sfc_debug:sfcdebug.obj
 0002:00002c30       ??_C@_0BO@JIGLNAHF@Transition?5Guarding?5Condition?$AA@ 00000001800a2c30     sfc_debug:sfcdebug.obj
 0002:00002c50       ??_C@_0BB@ODEGBFLN@Condition?5Action?$AA@ 00000001800a2c50     sfc_debug:sfcdebug.obj
 0002:00002c68       ??_C@_0BC@EPJNNAPA@Transition?5Action?$AA@ 00000001800a2c68     sfc_debug:sfcdebug.obj
 0002:00002c80       ??_C@_0DI@JGHJOLLJ@INTERNAL?5ERROR?4?5Failed?5assertion@ 00000001800a2c80     sfc_debug:sfcdebug.obj
 0002:00002cb8       ??_C@_01EEMJAFIK@?6?$AA@   00000001800a2cb8     sfc_debug:sfcdebug.obj
 0002:00002cc0       ??_C@_0P@HHNBJNJA@context_string?$AA@ 00000001800a2cc0     sfc_debug:sfcdebug.obj
 0002:00002cd0       ??_C@_0L@GJHMCDGO@sfcdebug?4c?$AA@ 00000001800a2cd0     sfc_debug:sfcdebug.obj
 0002:00002ce0       ??_C@_0BG@GIIBDCKK@debugInstance?5?$CB?$DN?5NULL?$AA@ 00000001800a2ce0     sfc_debug:sfcdebug.obj
 0002:00002cf8       ??_C@_0DL@EPKGPGLC@?$CImachine?9?$DOdataCompInfo?4fixedPoin@ 00000001800a2cf8     sfc_debug:sfcdebug.obj
 0002:00002d38       ??_C@_0DE@CBCLKIAM@?$CImachine?9?$DOdataCompInfo?4isComplex@ 00000001800a2d38     sfc_debug:sfcdebug.obj
 0002:00002d70       ??_C@_0DP@MDOJBFKE@?$CIinstance?9?$DOdataCompInfo?4fixedPoi@ 00000001800a2d70     sfc_debug:sfcdebug.obj
 0002:00002db0       ??_C@_0DM@KFHGIBMB@?$CIinstance?9?$DOdataCompInfo?4fixedPoi@ 00000001800a2db0     sfc_debug:sfcdebug.obj
 0002:00002df0       ??_C@_0DF@IIPJPBAH@?$CIinstance?9?$DOdataCompInfo?4isComple@ 00000001800a2df0     sfc_debug:sfcdebug.obj
 0002:00002e28       ??_C@_0DA@OMEPAHNH@?$CIchart?9?$DOdata?4outputDataFlags?$CJ?4le@ 00000001800a2e28     sfc_debug:sfcdebug.obj
 0002:00002e58       ??_C@_0CP@JPBDBJBK@?$CIchart?9?$DOdata?4inputDataFlags?$CJ?4len@ 00000001800a2e58     sfc_debug:sfcdebug.obj
 0002:00002e88       ??_C@_03KGJNKAJD@lic?$AA@  00000001800a2e88     sfc_debug:sfcdebug.obj
 0002:00002e8c       ??_C@_04PNMLDJAE@ense?$AA@ 00000001800a2e8c     sfc_debug:sfcdebug.obj
 0002:00002e98       ??_C@_0L@ONMHLBPB@?$CFs?$CFs?$CFslbox?$AA@ 00000001800a2e98     sfc_debug:sfcdebug.obj
 0002:00002ea4       ??_C@_04CLOJJEIM@fixe?$AA@ 00000001800a2ea4     sfc_debug:sfcdebug.obj
 0002:00002eac       ??_C@_05CBHOIFCP@t_too?$AA@ 00000001800a2eac     sfc_debug:sfcdebug.obj
 0002:00002eb4       ??_C@_06MGFNEDEJ@d_poin?$AA@ 00000001800a2eb4     sfc_debug:sfcdebug.obj
 0002:00002ebc       ??_C@_04HDOCAJNK@?$CFs?$CFs?$AA@ 00000001800a2ebc     sfc_debug:sfcdebug.obj
 0002:00002ec4       ??_C@_04BJBBOLDM@chec?$AA@ 00000001800a2ec4     sfc_debug:sfcdebug.obj
 0002:00002ecc       ??_C@_04KNBDLPKC@kout?$AA@ 00000001800a2ecc     sfc_debug:sfcdebug.obj
 0002:00002ed8       ??_C@_0BA@FKECJMCE@active_instance?$AA@ 00000001800a2ed8     sfc_debug:sfcdebug.obj
 0002:00002ee8       ??_C@_0DD@MJFCMKPO@transCnt?5?$DN?$DN?5instance?9?$DOcvToolIds?4@ 00000001800a2ee8     sfc_debug:sfcdebug.obj
 0002:00002f20       ??_C@_0CO@MONEMJEL@stateCnt?5?$DN?$DN?5instance?9?$DOcvToolIds?4@ 00000001800a2f20     sfc_debug:sfcdebug.obj
 0002:00002f50       ??_C@_0O@ELHBEDAD@init_debugger?$AA@ 00000001800a2f50     sfc_debug:sfcdebug.obj
 0002:00002f60       ??_C@_0L@PKOFOKNN@break_here?$AA@ 00000001800a2f60     sfc_debug:sfcdebug.obj
 0002:00002f70       ??_C@_0BH@KBPHNGCH@script?4activeMachineId?$AA@ 00000001800a2f70     sfc_debug:sfcdebug.obj
 0002:00002f88       ??_C@_03KCHOJKKI@set?$AA@  00000001800a2f88     sfc_debug:sfcdebug.obj
 0002:00002f90       ??_C@_0DD@PKMAPHBF@?$CImachine?9?$DOdata?4watchFlags?$CJ?4lengt@ 00000001800a2f90     sfc_debug:sfcdebug.obj
 0002:00002fd0       ??_C@_0FE@KLPHIMDI@?$CIchart?9?$DOdata?4watchFlags?$CJ?4length?$DO@ 00000001800a2fd0     sfc_debug:sfcdebug.obj
 0002:00003028       ??_C@_0BO@GFBPGEIL@bufferSizeGet?5?$DN?$DN?5totalSizeGet?$AA@ 00000001800a3028     sfc_debug:sfcdebug.obj
 0002:00003048       ??_C@_0BO@BEEPOEDP@bufferSizeSet?5?$DN?$DN?5totalSizeSet?$AA@ 00000001800a3048     sfc_debug:sfcdebug.obj
 0002:00003068       ??_C@_0BG@NNAKOPEK@get_script_line_count?$AA@ 00000001800a3068     sfc_debug:sfcdebug.obj
 0002:00003080       ??_C@_0BJ@GADAHKGG@temporal_threshold_error?$AA@ 00000001800a3080     sfc_debug:sfcdebug.obj
 0002:000030a0       ??_C@_0BK@KABIOMCC@transition_conflict_error?$AA@ 00000001800a30a0     sfc_debug:sfcdebug.obj
 0002:000030c0       ??_C@_0BK@HLPANOPJ@state_inconsistency_error?$AA@ 00000001800a30c0     sfc_debug:sfcdebug.obj
 0002:000030e0       ??_C@_0BA@PCEGODO@cycle_detection?$AA@ 00000001800a30e0     sfc_debug:sfcdebug.obj
 0002:000030f0       ??_C@_0CP@HMOGACCG@Simulation?5stopped?5due?5to?5out?5of@ 00000001800a30f0     sfc_debug:sfcdebug.obj
 0002:00003120       ??_C@_0BD@LFFFHIJG@array_bounds_error?$AA@ 00000001800a3120     sfc_debug:sfcdebug.obj
 0002:00003138       ??_C@_0O@IENBAMNA@runtime_error?$AA@ 00000001800a3138     sfc_debug:sfcdebug.obj
 0002:00003148       ??_C@_0CC@EDKHOOPE@Call?5to?5MATLAB?5function?5aborted?3@ 00000001800a3148     sfc_debug:sfcdebug.obj
 0002:00003170       ??_C@_0DJ@JBGHLJFL@Simulation?5stopped?5due?5to?5size?5m@ 00000001800a3170     sfc_debug:sfcdebug.obj
 0002:000031b0       ??_C@_0DJ@EAKPCDBG@Simulation?5stopped?5due?5to?5size?5m@ 00000001800a31b0     sfc_debug:sfcdebug.obj
 0002:000031f0       ??_C@_0GD@BJCLDBKO@Simulation?5stopped?5due?5to?5size?5m@ 00000001800a31f0     sfc_debug:sfcdebug.obj
 0002:00003260       ??_C@_0GJ@OHCOIONE@Simulation?5stopped?5due?5to?5size?5o@ 00000001800a3260     sfc_debug:sfcdebug.obj
 0002:000032d0       ??_C@_0DF@BOMHHCNB@Subscripted?5assignment?5dimension@ 00000001800a32d0     sfc_debug:sfcdebug.obj
 0002:00003310       ??_C@_0NG@BOPFGKBO@Matrix?$CImatrix?$CJ?5subscript?5turned?5@ 00000001800a3310     sfc_debug:sfcdebug.obj
 0002:000033f0       ??_C@_0HE@FPEPCMDA@Matrix?$CImatrix?$CJ?5subscript?5turned?5@ 00000001800a33f0     sfc_debug:sfcdebug.obj
 0002:00003470       ??_C@_0NG@MLJIHJIH@Vector?$CIvector?$CJ?5subscript?5turned?5@ 00000001800a3470     sfc_debug:sfcdebug.obj
 0002:00003550       ??_C@_0HE@BHPDCNDF@Vector?$CIvector?$CJ?5subscript?5turned?5@ 00000001800a3550     sfc_debug:sfcdebug.obj
 0002:000035c8       ??_C@_0BL@HKADOJK@Unknown?5runtime?5error?3?5?$CFs?4?$AA@ 00000001800a35c8     sfc_debug:sfcdebug.obj
 0002:000035e8       ??_C@_0P@FIEIFKHH@dataName?$CB?$DNNULL?$AA@ 00000001800a35e8     sfc_debug:sfcdebug.obj
 0002:000035f8       ??_C@_0BC@JKFOPCCM@non_integer_error?$AA@ 00000001800a35f8     sfc_debug:sfcdebug.obj
 0002:00003610       ??_C@_09MMCAMPEC@nan_error?$AA@ 00000001800a3610     sfc_debug:sfcdebug.obj
 0002:00003620       ??_C@_0P@KGNBONIG@negative_error?$AA@ 00000001800a3620     sfc_debug:sfcdebug.obj
 0002:00003630       ??_C@_0DA@OEGHOJFO@Simulation?5stopped?5due?5to?5divide@ 00000001800a3630     sfc_debug:sfcdebug.obj
 0002:00003660       ??_C@_0P@DAGNNBKM@overflow_error?$AA@ 00000001800a3660     sfc_debug:sfcdebug.obj
 0002:00003670       ??_C@_0BF@IEPBJJM@divide_by_zero_error?$AA@ 00000001800a3670     sfc_debug:sfcdebug.obj
 0002:00003688       ??_C@_0BC@CNIFONOF@unsafe_enum_error?$AA@ 00000001800a3688     sfc_debug:sfcdebug.obj
 0002:000036a0       ??_C@_0BA@GLGJGIFO@data_loss_error?$AA@ 00000001800a36a0     sfc_debug:sfcdebug.obj
 0002:000036b0       ??_C@_0BB@LFNCDKMF@data_range_error?$AA@ 00000001800a36b0     sfc_debug:sfcdebug.obj
 0002:000036d0       ??_C@_0FA@OJFHKNAF@Simulation?5stopped?5because?5a?5dat@ 00000001800a36d0     sfc_debug:sfcdebug.obj
 0002:00003720       ??_C@_0BI@LLOJJCOG@read_before_write_error?$AA@ 00000001800a3720     sfc_debug:sfcdebug.obj
 0002:00003738       __real@4059000000000000    00000001800a3738     sfc_debug:sfcdebug.obj
 0002:00003740       ??_C@_0EL@LHLCBPON@objectType?$DN?$DNEVENT_OBJECT?5?$CG?$CG?5obje@ 00000001800a3740     sfc_debug:sfcdebug.obj
 0002:00003790       ??_C@_0CK@BGKNIJPH@Simulation?5stopped?5due?5to?5infini@ 00000001800a3790     sfc_debug:sfcdebug.obj
 0002:000037c0       ??_C@_0BC@OGHOEIO@draw_message_post?$AA@ 00000001800a37c0     sfc_debug:sfcdebug.obj
 0002:000037e0       ??_C@_0EC@EKMLJIIP@strlen?$CItargetName?$CJ?$DMsizeof?$CIdebugI@ 00000001800a37e0     sfc_debug:sfcdebug.obj
 0002:00003830       ??_C@_0EE@LPPEFNLK@strlen?$CImachineName?$CJ?$DMsizeof?$CIdebug@ 00000001800a3830     sfc_debug:sfcdebug.obj
 0002:00003878       ??_C@_0BO@OEBODAF@charts?9?$DOlength?5?$DM?5charts?9?$DOsize?$AA@ 00000001800a3878     sfc_debug:sfcdebug.obj
 0002:00003898       ??_C@_0P@NDNBPAGO@charts?9?$DOsize?$DO0?$AA@ 00000001800a3898     sfc_debug:sfcdebug.obj
 0002:000038a8       ??_C@_09DACGJFPO@terminate?$AA@ 00000001800a38a8     sfc_debug:sfcdebug.obj
 0002:000038b8       ??_C@_0BH@BOIPOAMD@currentoptionalinteger?$AA@ 00000001800a38b8     sfc_debug:sfc_api.obj
 0002:000038d0       ??_C@_0BI@KDFLIHKN@currentstatementcontext?$AA@ 00000001800a38d0     sfc_debug:sfc_api.obj
 0002:000038e8       ??_C@_0BF@CJJCNHOP@currentstatementinfo?$AA@ 00000001800a38e8     sfc_debug:sfc_api.obj
 0002:00003900       ??_C@_0BA@EEHAMBBL@currentcoverage?$AA@ 00000001800a3900     sfc_debug:sfc_api.obj
 0002:00003910       ??_C@_0BD@CPIGBEHM@currentmachinename?$AA@ 00000001800a3910     sfc_debug:sfc_api.obj
 0002:00003928       ??_C@_0BF@MPNFKHIK@currentmachinenumber?$AA@ 00000001800a3928     sfc_debug:sfc_api.obj
 0002:00003940       ??_C@_0BB@EAGFPGEG@currentmachineid?$AA@ 00000001800a3940     sfc_debug:sfc_api.obj
 0002:00003958       ??_C@_0P@LDEJFJKJ@simulationtime?$AA@ 00000001800a3958     sfc_debug:sfc_api.obj
 0002:00003968       ??_C@_0P@CKMPNBM@currenttagtype?$AA@ 00000001800a3968     sfc_debug:sfc_api.obj
 0002:00003978       ??_C@_0BH@EMAALFDO@currentactiveeventtype?$AA@ 00000001800a3978     sfc_debug:sfc_api.obj
 0002:00003990       ??_C@_0BF@BIDFPCPF@currentactiveeventid?$AA@ 00000001800a3990     sfc_debug:sfc_api.obj
 0002:000039a8       ??_C@_0BA@LAPNNELA@currentobjectid?$AA@ 00000001800a39a8     sfc_debug:sfc_api.obj
 0002:000039b8       ??_C@_0BB@LLJHHKEI@currenteventtype?$AA@ 00000001800a39b8     sfc_debug:sfc_api.obj
 0002:000039d0       ??_C@_0BC@BDADCDEL@currentobjecttype?$AA@ 00000001800a39d0     sfc_debug:sfc_api.obj
 0002:000039e8       ??_C@_0BH@HDHFFKCN@currentisminortimestep?$AA@ 00000001800a39e8     sfc_debug:sfc_api.obj
 0002:00003a00       ??_C@_0BG@PKFJEKLL@currentinstancehandle?$AA@ 00000001800a3a00     sfc_debug:sfc_api.obj
 0002:00003a18       ??_C@_0BG@GJFHKFBJ@currentinstancenumber?$AA@ 00000001800a3a18     sfc_debug:sfc_api.obj
 0002:00003a30       ??_C@_0BD@DKAMMHEE@currentchartnumber?$AA@ 00000001800a3a30     sfc_debug:sfc_api.obj
 0002:00003a48       ??_C@_0P@EANFOHCD@currentchartid?$AA@ 00000001800a3a48     sfc_debug:sfc_api.obj
 0002:00003a58       ??_C@_0CC@JILMFDHL@extract_message_post_receive_inf@ 00000001800a3a58     sfc_debug:sfc_api.obj
 0002:00003a7c       ??_C@_06IMFOKBKF@assign?$AA@ 00000001800a3a7c     sfc_debug:sfc_api.obj
 0002:00003a88       ??_C@_0BC@CMFMGKCG@set_script_cv_ids?$AA@ 00000001800a3a88     sfc_debug:sfc_api.obj
 0002:00003aa0       ??_C@_0BE@ONNFKBAC@set_instance_cv_ids?$AA@ 00000001800a3aa0     sfc_debug:sfc_api.obj
 0002:00003ab8       ??_C@_0BE@CDIKCKCD@get_instance_handle?$AA@ 00000001800a3ab8     sfc_debug:sfc_api.obj
 0002:00003ad0       ??_C@_0BE@GPEMFILK@break_between_times?$AA@ 00000001800a3ad0     sfc_debug:sfc_api.obj
 0002:00003ae8       ??_C@_0O@KGONFDDG@active_states?$AA@ 00000001800a3ae8     sfc_debug:sfc_api.obj
 0002:00003af8       ??_C@_0BC@LHALNGBC@state_consistency?$AA@ 00000001800a3af8     sfc_debug:sfc_api.obj
 0002:00003b10       ??_C@_0BE@JNDELHDH@transition_conflict?$AA@ 00000001800a3b10     sfc_debug:sfc_api.obj
 0002:00003b28       ??_C@_0L@ECJAFPAF@data_range?$AA@ 00000001800a3b28     sfc_debug:sfc_api.obj
 0002:00003b38       ??_C@_0O@NAKDKJME@select_charts?$AA@ 00000001800a3b38     sfc_debug:sfc_api.obj
 0002:00003b48       ??_C@_0N@KLDBDGD@select_chart?$AA@ 00000001800a3b48     sfc_debug:sfc_api.obj
 0002:00003b58       ??_C@_0O@NJPMKBAC@set_animation?$AA@ 00000001800a3b58     sfc_debug:sfc_api.obj
 0002:00003b68       ??_C@_09FLOFKLFE@set_watch?$AA@ 00000001800a3b68     sfc_debug:sfc_api.obj
 0002:00003b78       ??_C@_0O@ECMAEPOC@get_script_id?$AA@ 00000001800a3b78     sfc_debug:sfc_api.obj
 0002:00003b88       ??_C@_0BJ@KFGPCNG@query_script_breakpoints?$AA@ 00000001800a3b88     sfc_debug:sfc_api.obj
 0002:00003ba8       ??_C@_0BJ@CAAHLJNF@clear_script_breakpoints?$AA@ 00000001800a3ba8     sfc_debug:sfc_api.obj
 0002:00003bc8       ??_C@_0BH@BAILBHDP@add_script_breakpoints?$AA@ 00000001800a3bc8     sfc_debug:sfc_api.obj
 0002:00003be0       ??_C@_0BH@KAKDDELG@set_script_breakpoints?$AA@ 00000001800a3be0     sfc_debug:sfc_api.obj
 0002:00003bf8       ??_C@_0BE@GAGDJPKA@set_eml_breakpoints?$AA@ 00000001800a3bf8     sfc_debug:sfc_api.obj
 0002:00003c10       ??_C@_0BA@NHOBHLLJ@set_breakpoints?$AA@ 00000001800a3c10     sfc_debug:sfc_api.obj
 0002:00003c20       ??_C@_0BF@GOGOODJG@break_on_state_entry?$AA@ 00000001800a3c20     sfc_debug:sfc_api.obj
 0002:00003c38       ??_C@_0BJ@FPOJDFBP@break_on_event_broadcast?$AA@ 00000001800a3c38     sfc_debug:sfc_api.obj
 0002:00003c58       ??_C@_0BF@FJBBAFJ@break_on_chart_entry?$AA@ 00000001800a3c58     sfc_debug:sfc_api.obj
 0002:00003c70       ??_C@_0N@MHHEHLAI@browse_trace?$AA@ 00000001800a3c70     sfc_debug:sfc_api.obj
 0002:00003c80       ??_C@_0BB@JEAJMJMI@consistency_info?$AA@ 00000001800a3c80     sfc_debug:sfc_api.obj
 0002:00003c94       ??_C@_04MLCEENPJ@whos?$AA@ 00000001800a3c94     sfc_debug:sfc_api.obj
 0002:00003ca0       ??_C@_0L@LNIDAIN@watch_data?$AA@ 00000001800a3ca0     sfc_debug:sfc_api.obj
 0002:00003cb0       ??_C@_0M@JEJMEFEG@browse_data?$AA@ 00000001800a3cb0     sfc_debug:sfc_api.obj
 0002:00003cbc       ??_C@_03HNAFFKGA@get?$AA@  00000001800a3cbc     sfc_debug:sfc_api.obj
 0002:00003cc0       ??_C@_05LBOHBHFK@close?$AA@ 00000001800a3cc0     sfc_debug:sfc_api.obj
 0002:00003cc8       ??_C@_0BM@ICDFOOIE@set_disable_all_breakpoints?$AA@ 00000001800a3cc8     sfc_debug:sfc_api.obj
 0002:00003ce8       ??_C@_0BP@IBIALPGH@disable_all_breakpoints_and_go?$AA@ 00000001800a3ce8     sfc_debug:sfc_api.obj
 0002:00003d08       ??_C@_0BJ@BOMFHJBD@is_array_bounds_detected?$AA@ 00000001800a3d08     sfc_debug:sfc_api.obj
 0002:00003d28       ??_C@_0BC@LKOOEAAH@is_cycle_detected?$AA@ 00000001800a3d28     sfc_debug:sfc_api.obj
 0002:00003d40       ??_C@_0P@NIBPNIDJ@stop_debugging?$AA@ 00000001800a3d40     sfc_debug:sfc_api.obj
 0002:00003d50       ??_C@_05ELPHFHOI@break?$AA@ 00000001800a3d50     sfc_debug:sfc_api.obj
 0002:00003d58       ??_C@_06PLELHCEK@resume?$AA@ 00000001800a3d58     sfc_debug:sfc_api.obj
 0002:00003d60       ??_C@_08OKABEMKO@step_out?$AA@ 00000001800a3d60     sfc_debug:sfc_api.obj
 0002:00003d70       ??_C@_09CDNMPCHO@step_over?$AA@ 00000001800a3d70     sfc_debug:sfc_api.obj
 0002:00003d7c       ??_C@_02KPEDIMCA@go?$AA@   00000001800a3d7c     sfc_debug:sfc_api.obj
 0002:00003d80       ??_C@_0P@MMCMIGPN@debugger_alive?$AA@ 00000001800a3d80     sfc_debug:sfc_api.obj
 0002:00003d90       ??_C@_0N@GHFBLJDM@machine_load?$AA@ 00000001800a3d90     sfc_debug:sfc_api.obj
 0002:00003da0       ??_C@_0O@GIBFCMLF@chart_visible?$AA@ 00000001800a3da0     sfc_debug:sfc_api.obj
 0002:000041c0       ??_C@_05JEMLEKKA@found?$AA@ 00000001800a41c0     sfc_debug:sfc_api.obj
 0002:000041c8       ??_C@_09KFNMLIAN@sfc_api?4c?$AA@ 00000001800a41c8     sfc_debug:sfc_api.obj
 0002:000041d8       ??_C@_0N@PFBMDOLG@sf_debug_api?$AA@ 00000001800a41d8     sfc_debug:sfc_api.obj
 0002:000041e8       ??_C@_07KEAHHHLK@nrhs?$DN?$DN3?$AA@ 00000001800a41e8     sfc_debug:sfc_api.obj
 0002:000041f0       ??_C@_0BC@HOOMKBNL@mxIsChar?$CIprhs?$FL0?$FN?$CJ?$AA@ 00000001800a41f0     sfc_debug:sfc_api.obj
 0002:00004208       ??_C@_0BF@NGLAGMHA@mxIsNumeric?$CIprhs?$FL0?$FN?$CJ?$AA@ 00000001800a4208     sfc_debug:sfc_api.obj
 0002:00004220       ??_C@_07IEIELKNG@nrhs?$DO?$DN1?$AA@ 00000001800a4220     sfc_debug:sfc_api.obj
 0002:00004228       ??_C@_07LNBMEGPL@nrhs?$DN?$DN2?$AA@ 00000001800a4228     sfc_debug:sfc_api.obj
 0002:00004230       ??_C@_0BD@DPNMCCEH@nrhs?$DN?$DN1?5?$HM?$HM?5nrhs?$DN?$DN3?$AA@ 00000001800a4230     sfc_debug:sfc_api.obj
 0002:00004248       ??_C@_09FKOBHCEN@nrhs?5?$DN?$DN?52?$AA@ 00000001800a4248     sfc_debug:sfc_api.obj
 0002:00004258       ??_C@_09EMKMAIDO@nrhs?5?$DM?$DN?51?$AA@ 00000001800a4258     sfc_debug:sfc_api.obj
 0002:00004268       ??_C@_07OLEGOBHN@nrhs?$DN?$DN4?$AA@ 00000001800a4268     sfc_debug:sfc_api.obj
 0002:00004270       ??_C@_07PCFNNADM@nrhs?$DN?$DN5?$AA@ 00000001800a4270     sfc_debug:sfc_api.obj
 0002:00004278       ??_C@_07JGDBBFDI@nrhs?$DN?$DN1?$AA@ 00000001800a4278     sfc_debug:sfc_api.obj
 0002:00004280       ??_C@_07KBNAPCKL@nlhs?$DN?$DN1?$AA@ 00000001800a4280     sfc_debug:sfc_api.obj
 0002:00004288       ??_C@_08PAMHJLPB@statusOk?$AA@ 00000001800a4288     sfc_debug:sfc_api.obj
 0002:00004298       ??_C@_07NJHAIDPP@nrhs?$DN?$DN6?$AA@ 00000001800a4298     sfc_debug:sfc_api.obj
 0002:000042a0       ??_C@_0L@EMNHGDGL@nlhs?$DN?$DNnrhs?$AA@ 00000001800a42a0     sfc_debug:sfc_api.obj
 0002:000042b0       ??_C@_0P@BLJCAHMG@select_objects?$AA@ 00000001800a42b0     sfc_debug:sfdb_animation.obj
 0002:000042c0       ??_C@_06CFKBOPCI@states?$AA@ 00000001800a42c0     sfc_debug:sfdb_animation.obj
 0002:000042c8       ??_C@_0P@KHIIFDEG@instanceHandle?$AA@ 00000001800a42c8     sfc_debug:sfdb_animation.obj
 0002:000042d8       ??_C@_0P@DEIGLMOE@instanceNumber?$AA@ 00000001800a42d8     sfc_debug:sfdb_animation.obj
 0002:000042e8       ??_C@_0N@HACOJJON@instanceName?$AA@ 00000001800a42e8     sfc_debug:sfdb_animation.obj
 0002:000042f8       ??_C@_0M@BFNIOHPP@chartNumber?$AA@ 00000001800a42f8     sfc_debug:sfdb_animation.obj
 0002:00004308       ??_C@_09KMHJEGJ@chartName?$AA@ 00000001800a4308     sfc_debug:sfdb_animation.obj
 0002:00004314       ??_C@_06OOECHJN@charts?$AA@ 00000001800a4314     sfc_debug:sfdb_animation.obj
 0002:00004320       ??_C@_0O@LOMGGENK@machineNumber?$AA@ 00000001800a4320     sfc_debug:sfdb_animation.obj
 0002:00004330       ??_C@_09OOJCKABH@machineId?$AA@ 00000001800a4330     sfc_debug:sfdb_animation.obj
 0002:00004340       ??_C@_0M@OCOCCFP@machineName?$AA@ 00000001800a4340     sfc_debug:sfdb_animation.obj
 0002:00004350       ??_C@_0CN@CCJEMGOM@?$CIinstance?9?$DOsm?4statePack?$CJ?4length?$DO@ 00000001800a4350     sfc_debug:sfdb_animation.obj
 0002:00004380       ??_C@_0DC@DKAJIDPA@?$CIinstance?9?$DOsm?4transitionPack?$CJ?4le@ 00000001800a4380     sfc_debug:sfdb_animation.obj
 0002:000043b8       ??_C@_0BB@EGGLBLCL@sfdb_animation?4c?$AA@ 00000001800a43b8     sfc_debug:sfdb_animation.obj
 0002:000043d0       ??_C@_09ODDKEGMC@cvprivate?$AA@ 00000001800a43d0     sfc_debug:cv_sfinterface.obj
 0002:000043e0       ??_C@_0BB@GDGPIGLB@cv_model_enabled?$AA@ 00000001800a43e0     sfc_debug:cv_sfinterface.obj
 0002:000043f8       ??_C@_09DDDNMFIJ@get_param?$AA@ 00000001800a43f8     sfc_debug:cv_sfinterface.obj
 0002:00004408       ??_C@_0L@BODNDPN@CoverageId?$AA@ 00000001800a4408     sfc_debug:cv_sfinterface.obj
 0002:00004414       ??_C@_05IEGMLJMJ@exist?$AA@ 00000001800a4414     sfc_debug:cv_sfinterface.obj
 0002:0000441c       ??_C@_02DDEKINOE@cv?$AA@   00000001800a441c     sfc_debug:cv_sfinterface.obj
 0002:00004420       __real@4082c00000000000    00000001800a4420     sfc_debug:cv_sfinterface.obj
 0002:00004428       ??_C@_0O@HGNEKHDK@MatlabVersion?$AA@ 00000001800a4428     sfc_debug:cv_sfinterface.obj
 0002:00004438       ??_C@_0M@IIAIMKFO@status?5?$DN?$DN?50?$AA@ 00000001800a4438     sfc_debug:cv_sfinterface.obj
 0002:00004448       ??_C@_0BB@ENEMAMMG@cv_sfinterface?4c?$AA@ 00000001800a4448     sfc_debug:cv_sfinterface.obj
 0002:00004460       ??_C@_0CC@JMPFGLON@mxGetNumberOfElements?$CIplhs?$FL3?$FN?$CJ?$DN?$DN@ 00000001800a4460     sfc_debug:cv_sfinterface.obj
 0002:00004488       ??_C@_0P@MCDOIOOF@plhs?$FL3?$FN?5?$CB?$DNNULL?$AA@ 00000001800a4488     sfc_debug:cv_sfinterface.obj
 0002:00004498       ??_C@_0P@HAMLCBNF@len?$DM?$DNdataCount?$AA@ 00000001800a4498     sfc_debug:cv_sfinterface.obj
 0002:000044a8       ??_C@_0BA@FJOAHKLL@len?$DN?$DNtransCount?$AA@ 00000001800a44a8     sfc_debug:cv_sfinterface.obj
 0002:000044b8       ??_C@_0BA@JELAJLGI@len?$DN?$DNstateCount?$AA@ 00000001800a44b8     sfc_debug:cv_sfinterface.obj
 0002:000044c8       ??_C@_0BC@NEFBEIHN@InitChartInstance?$AA@ 00000001800a44c8     sfc_debug:cv_sfinterface.obj
 0002:000044dc       ??_C@_04MMALOABH@cvsf?$AA@ 00000001800a44dc     sfc_debug:cv_sfinterface.obj
 0002:000044e8       ??_C@_0L@GIEKKEHF@InitScript?$AA@ 00000001800a44e8     sfc_debug:cv_sfinterface.obj
 0002:000044f8       ??_C@_08DNDOONPK@sigrange?$AA@ 00000001800a44f8     sfc_debug:cv_sfinterface.obj
 0002:00004508       ??_C@_0O@KGBGEHIN@MetricEnabled?$AA@ 00000001800a4508     sfc_debug:cv_sfinterface.obj
 0002:00004518       ??_C@_0BC@NKPEPJDJ@chart?9?$DOchartId?$CB?$DN0?$AA@ 00000001800a4518     sfc_debug:cv_sfinterface.obj
 0002:0000452c       ??_C@_02GMHACPFF@?$CFu?$AA@ 00000001800a452c     sfc_debug:sfdb_data_browse.obj
 0002:00004530       ??_C@_02NJPGOMH@?$CFf?$AA@ 00000001800a4530     sfc_debug:sfdb_data_browse.obj
 0002:00004538       ??_C@_0BD@PCGIEHBF@sfdb_data_browse?4c?$AA@ 00000001800a4538     sfc_debug:sfdb_data_browse.obj
 0002:00004550       __real@c2a2309ce53fffcd    00000001800a4550     sfc_debug:sfdb_data_browse.obj
 0002:00004558       ??_C@_0CK@JKBFHDPL@result?5?$DN?5mxCreateDoubleMatrix?$CI1?0@ 00000001800a4558     sfc_debug:sfdb_data_browse.obj
 0002:00004588       ??_C@_0DK@FJDNFCNK@result?5?$DN?5mxCreateDoubleMatrix?$CI1?0@ 00000001800a4588     sfc_debug:sfdb_data_browse.obj
 0002:000045c8       ??_C@_0DL@OAKPHGJG@result?5?$DN?5mxCreateDoubleMatrix?$CI1?0@ 00000001800a45c8     sfc_debug:sfdb_data_browse.obj
 0002:00004608       ??_C@_0N@MNGHGLAH@isFixedPoint?$AA@ 00000001800a4608     sfc_debug:sfdb_data_browse.obj
 0002:00004618       ??_C@_06DLEPGFEF@format?$AA@ 00000001800a4618     sfc_debug:sfdb_data_browse.obj
 0002:00004620       ??_C@_05MFEJDJP@value?$AA@ 00000001800a4620     sfc_debug:sfdb_data_browse.obj
 0002:00004628       ??_C@_05DCCHDMEJ@scope?$AA@ 00000001800a4628     sfc_debug:sfdb_data_browse.obj
 0002:00004630       ??_C@_02EGCJHIOB@id?$AA@   00000001800a4630     sfc_debug:sfdb_data_browse.obj
 0002:00004634       ??_C@_04PJOLNDGD@data?$AA@ 00000001800a4634     sfc_debug:sfdb_data_browse.obj
 0002:0000463c       ??_C@_06LIBBAANI@len?$DN?$DN1?$AA@ 00000001800a463c     sfc_debug:sfdb_handle_management.obj
 0002:00004648       ??_C@_0BJ@IEEBKHME@sfdb_handle_management?4c?$AA@ 00000001800a4648     sfc_debug:sfdb_handle_management.obj
 0002:00004664       ??_C@_06NCGDPKCC@handle?$AA@ 00000001800a4664     sfc_debug:sfdb_handle_management.obj
 0002:00004670       ??_C@_0BP@NAIIDBEE@parentObjectType?$DN?$DNCHART_OBJECT?$AA@ 00000001800a4670     sfc_debug:sfdb_handle_management.obj
 0002:00004690       ??_C@_0BD@JOOOIBOE@get_machine_option?$AA@ 00000001800a4690     sfc_debug:sfdb_handle_management.obj
 0002:000046a8       ??_C@_0P@KGLBOIAN@get_machine_id?$AA@ 00000001800a46a8     sfc_debug:sfdb_handle_management.obj
 0002:000046b8       ??_C@_0N@OBHOGINE@get_chart_id?$AA@ 00000001800a46b8     sfc_debug:sfdb_handle_management.obj
 0002:000046c8       ??_C@_0BD@DICPGEAM@register_sfunction?$AA@ 00000001800a46c8     sfc_debug:sfdb_handle_management.obj
 0002:000046e0       ??_C@_0BF@FENDCECP@get_chart_visibility?$AA@ 00000001800a46e0     sfc_debug:sfdb_handle_management.obj
 0002:000046f8       ??_C@_0BM@FDGIEMLG@objectProperties?9?$DOlength?$DN?$DN0?$AA@ 00000001800a46f8     sfc_debug:sfdb_handle_management.obj
 0002:00004718       ??_C@_0CE@KBPIEDGG@?$CI?$CI?$CKobjectProperties?$CJ?$CJ?4length?$DOnum@ 00000001800a4718     sfc_debug:sfdb_handle_management.obj
 0002:00004740       ??_C@_0CA@HFGDFECP@len?5?$DN?$DN?5objectProperties?9?$DOlength?$AA@ 00000001800a4740     sfc_debug:sfdb_handle_management.obj
 0002:00004760       ??_C@_0P@BHPLCHGJ@get_object_ids?$AA@ 00000001800a4760     sfc_debug:sfdb_handle_management.obj
 0002:00004770       ??_C@_0BK@IFFOLHLE@objectProperties?9?$DOsize?$DN?$DN0?$AA@ 00000001800a4770     sfc_debug:sfdb_handle_management.obj
 0002:00004790       ??_C@_0BO@GFLPGHHM@len?5?$DO?$DN?5objectProperties?9?$DOsize?$AA@ 00000001800a4790     sfc_debug:sfdb_handle_management.obj
 0002:000047b0       ??_C@_05GFHEIIDD@event?$AA@ 00000001800a47b0     sfc_debug:sfdb_handle_management.obj
 0002:000047b8       ??_C@_0M@BFOKCNLA@debug?4watch?$AA@ 00000001800a47b8     sfc_debug:sfdb_handle_management.obj
 0002:000047c8       ??_C@_0CE@OILCPIFA@machine?4debug?4disableAllBreakpoi@ 00000001800a47c8     sfc_debug:sfdb_handle_management.obj
 0002:000047f0       ??_C@_0DA@JMDEGBBH@machine?4debug?4runTimeCheck?4state@ 00000001800a47f0     sfc_debug:sfdb_handle_management.obj
 0002:00004820       ??_C@_0CP@IPHIMGFA@machine?4debug?4runTimeCheck?4trans@ 00000001800a4820     sfc_debug:sfdb_handle_management.obj
 0002:00004850       ??_C@_0CL@LENOAAKD@machine?4debug?4runTimeCheck?4dataR@ 00000001800a4850     sfc_debug:sfdb_handle_management.obj
 0002:00004880       ??_C@_0CK@MBMAMLGE@machine?4debug?4runTimeCheck?4cycle@ 00000001800a4880     sfc_debug:sfdb_handle_management.obj
 0002:000048b0       ??_C@_0CA@EGLALCO@machine?4debug?4animation?4enabled?$AA@ 00000001800a48b0     sfc_debug:sfdb_handle_management.obj
 0002:000048d0       ??_C@_0L@KGLELNDP@transition?$AA@ 00000001800a48d0     sfc_debug:sfdb_handle_management.obj
 0002:000048dc       ??_C@_06JKPEPHBG@dst?4id?$AA@ 00000001800a48dc     sfc_debug:sfdb_handle_management.obj
 0002:000048e4       ??_C@_05HDBKIDE@state?$AA@ 00000001800a48e4     sfc_debug:sfdb_handle_management.obj
 0002:000048f0       ??_C@_0EG@MFIKDIJB@strlen?$CImachineName?$CJ?5?$DM?5sizeof?$CIdeb@ 00000001800a48f0     sfc_debug:sfdb_handle_management.obj
 0002:00004938       ??_C@_0BM@DEONCIBN@stackPtr?5?$DN?$DN?5symScope?9?$DOstack?$AA@ 00000001800a4938     sfc_debug:sfdb_symbol_scope.obj
 0002:00004958       ??_C@_0BE@PIKAOBFK@sfdb_symbol_scope?4c?$AA@ 00000001800a4958     sfc_debug:sfdb_symbol_scope.obj
 0002:00004970       ??_C@_0BP@MJGDIBPE@symScope?9?$DOcurrentScope?5?$CB?$DN?5NULL?$AA@ 00000001800a4970     sfc_debug:sfdb_symbol_scope.obj
 0002:00004990       ??_C@_0BP@OCHHKFJA@symScope?9?$DOcurrentScope?5?$DN?$DN?5NULL?$AA@ 00000001800a4990     sfc_debug:sfdb_symbol_scope.obj
 0002:000049b0       ??_C@_0BM@KCIKANPA@symScope?9?$DOstack?5?$DN?$DN?5stackPtr?$AA@ 00000001800a49b0     sfc_debug:sfdb_symbol_scope.obj
 0002:000049d0       ??_C@_0DK@NCABFGD@symScope?9?$DOcurrentScope?5?$CB?$DN?5NULL?5?$CG@ 00000001800a49d0     sfc_debug:sfdb_symbol_scope.obj
 0002:00004a10       ??_C@_0DL@LDAGNOEE@currScope?9?$DOsymbolTable?4count?5?$DM?5c@ 00000001800a4a10     sfc_debug:sfdb_symbol_scope.obj
 0002:00004a50       ??_C@_0BK@PHCKFGOO@numDims?5?$DM?$DN?5MAX_DIMENSIONS?$AA@ 00000001800a4a50     sfc_debug:sfdb_symbol_scope.obj
 0002:00004a70       ??_C@_0EE@CLCFNFKP@Warning?3?5Can?8t?5display?5value?4?5Nu@ 00000001800a4a70     sfc_debug:sfdb_symbol_scope.obj
 0002:00004ab8       ??_C@_0BB@NPDHFBEP@valuePtr?5?$CB?$DN?5NULL?$AA@ 00000001800a4ab8     sfc_debug:sfdb_symbol_scope.obj
 0002:00004ad0       ??_C@_0O@CHHKIHJE@chart?5?$CB?$DN?5NULL?$AA@ 00000001800a4ad0     sfc_debug:sfdb_symbol_scope.obj
 0002:00004ae0       ??_C@_0BH@JFKFJEAI@dataInfo?5?$CG?$CG?5data?5?$CG?$CG?5st?$AA@ 00000001800a4ae0     sfc_debug:sfdb_symbol_scope.obj
 0002:00004b00       ??_C@_0PC@ENOLANEC@Cannot?5change?5value?5of?5?8?$CFs?8?5at?5d@ 00000001800a4b00     sfc_debug:sfdb_symbol_scope.obj
 0002:00004bf4       ??_C@_02PINLEBJB@fi?$AA@   00000001800a4bf4     sfc_debug:sfdb_symbol_scope.obj
 0002:00004bf8       ??_C@_06FDANFAAP@sim2fi?$AA@ 00000001800a4bf8     sfc_debug:sfdb_symbol_scope.obj
 0002:00004c00       ??_C@_0N@PGGMJAFA@Out?5of?5Scope?$AA@ 00000001800a4c00     sfc_debug:sfdb_symbol_scope.obj
 0002:00004c10       ??_C@_0BF@KFJKGDMO@Unrecognized?5symbol?4?$AA@ 00000001800a4c10     sfc_debug:sfdb_symbol_scope.obj
 0002:00004c28       ??_C@_0L@INJGJGAM@?5?$CIcomplex?$CJ?$AA@ 00000001800a4c28     sfc_debug:sfdb_symbol_scope.obj
 0002:00004c38       ??_C@_0O@MHGLJPE@fixpt?5?$CI?$CFs?5?$CFs?$CJ?$AA@ 00000001800a4c38     sfc_debug:sfdb_symbol_scope.obj
 0002:00004c48       ??_C@_08FFKICJMO@?$CFs?$CL?$CF?416g?$AA@ 00000001800a4c48     sfc_debug:sfdb_symbol_scope.obj
 0002:00004c54       ??_C@_02EPPPECEI@SI?$AA@   00000001800a4c54     sfc_debug:sfdb_symbol_scope.obj
 0002:00004c58       ??_C@_09LKFGHFHF@?$CFs?$CI2?$FO?$CFd?$CJ?$CK?$AA@ 00000001800a4c58     sfc_debug:sfdb_symbol_scope.obj
 0002:00004c64       ??_C@_06KJECHFDK@?$CF?416g?$CK?$AA@ 00000001800a4c64     sfc_debug:sfdb_symbol_scope.obj
 0002:00004c6c       ??_C@_02IJPJFKDF@ml?$AA@   00000001800a4c6c     sfc_debug:sfdb_symbol_scope.obj
 0002:00004c70       ??_C@_0O@NJOJHIHO@logical?5array?$AA@ 00000001800a4c70     sfc_debug:sfdb_symbol_scope.obj
 0002:00004c80       ??_C@_0L@MDMKKENH@char?5array?$AA@ 00000001800a4c80     sfc_debug:sfdb_symbol_scope.obj
 0002:00004c90       ??_C@_0N@DGCGENML@uint32?5array?$AA@ 00000001800a4c90     sfc_debug:sfdb_symbol_scope.obj
 0002:00004ca0       ??_C@_0M@OFFMACLB@int32?5array?$AA@ 00000001800a4ca0     sfc_debug:sfdb_symbol_scope.obj
 0002:00004cb0       ??_C@_0N@JMJKGLLH@uint16?5array?$AA@ 00000001800a4cb0     sfc_debug:sfdb_symbol_scope.obj
 0002:00004cc0       ??_C@_0M@EPOACEMN@int16?5array?$AA@ 00000001800a4cc0     sfc_debug:sfdb_symbol_scope.obj
 0002:00004cd0       ??_C@_0M@NOMKNEGI@uint8?5array?$AA@ 00000001800a4cd0     sfc_debug:sfdb_symbol_scope.obj
 0002:00004ce0       ??_C@_0L@HCHBFFAP@int8?5array?$AA@ 00000001800a4ce0     sfc_debug:sfdb_symbol_scope.obj
 0002:00004cf0       ??_C@_0N@KIFCNMIF@single?5array?$AA@ 00000001800a4cf0     sfc_debug:sfdb_symbol_scope.obj
 0002:00004d00       ??_C@_0N@OFOFFBCM@double?5array?$AA@ 00000001800a4d00     sfc_debug:sfdb_symbol_scope.obj
 0002:00004d10       ??_C@_04BIAHPGJI@?$CFdx1?$AA@ 00000001800a4d10     sfc_debug:sfdb_symbol_scope.obj
 0002:00004d18       ??_C@_04CADIJHHA@?$CFd?9D?$AA@ 00000001800a4d18     sfc_debug:sfdb_symbol_scope.obj
 0002:00004d20       ??_C@_05JIPKJPMI@?$CFs?$CFdx?$AA@ 00000001800a4d20     sfc_debug:sfdb_symbol_scope.obj
 0002:00004d28       ??_C@_0BH@GLACFBLP@?5?$CIvariable?5sized?3?5MAX?5?$AA@ 00000001800a4d28     sfc_debug:sfdb_symbol_scope.obj
 0002:00004d40       ??_C@_07CIFAGBMG@unknown?$AA@ 00000001800a4d40     sfc_debug:sfdb_symbol_scope.obj
 0002:00004d48       ??_C@_05ENKANFLO@class?$AA@ 00000001800a4d48     sfc_debug:sfdb_symbol_scope.obj
 0002:00004d50       ??_C@_05FBJAGGIG@bytes?$AA@ 00000001800a4d50     sfc_debug:sfdb_symbol_scope.obj
 0002:00004d58       ??_C@_04MEMAJGDJ@name?$AA@ 00000001800a4d58     sfc_debug:sfdb_symbol_scope.obj
 0002:00004d60       ??_C@_0CF@NELOECCL@coverageVector?9?$DOlength?$DOcoverageI@ 00000001800a4d60     sfc_debug:sfdb_coverage.obj
 0002:00004d88       ??_C@_0BA@CBMBNBFB@sfdb_coverage?4c?$AA@ 00000001800a4d88     sfc_debug:sfdb_coverage.obj
 0002:00004d98       ??_C@_0DN@FAEHHEAM@?$CIscript?9?$DObm?4breakpoints?$CJ?4length?$DO@ 00000001800a4d98     sfc_debug:sfdb_breakpoints.obj
 0002:00004dd8       ??_C@_0BD@BABBLJFB@sfdb_breakpoints?4c?$AA@ 00000001800a4dd8     sfc_debug:sfdb_breakpoints.obj
 0002:00004df0       ??_C@_0P@IGHKOFID@get_script_bps?$AA@ 00000001800a4df0     sfc_debug:sfdb_breakpoints.obj
 0002:00004e00       ??_C@_0BA@ICOJJJDD@get_all_scripts?$AA@ 00000001800a4e00     sfc_debug:sfdb_breakpoints.obj
 0002:00004e10       ??_C@_0EI@EDDFBGGP@?$CIunsigned?5int?$CJ?$CImxGetM?$CIplhs?$FL0?$FN?$CJ?5?$CK@ 00000001800a4e10     sfc_debug:sfdb_breakpoints.obj
 0002:00004e58       ??_C@_0BE@PNADEEOB@get_eml_line_counts?$AA@ 00000001800a4e58     sfc_debug:sfdb_breakpoints.obj
 0002:00004e70       ??_C@_0CC@JPCLBDPC@mxGetNumberOfElements?$CIplhs?$FL0?$FN?$CJ?$DN?$DN@ 00000001800a4e70     sfc_debug:sfdb_breakpoints.obj
 0002:00004e98       ??_C@_0P@EHJHKHLL@get_global_bps?$AA@ 00000001800a4e98     sfc_debug:sfdb_breakpoints.obj
 0002:00004ea8       ??_C@_0CE@NADCJCF@?$CIchart?9?$DObm?4chart?$FLtagType?$FN?$CJ?4lengt@ 00000001800a4ea8     sfc_debug:sfdb_breakpoints.obj
 0002:00004ed0       ??_C@_0CP@JOFCMAIP@?$CIchart?9?$DObm?4state?$FLtagType?$FN?$CJ?4lengt@ 00000001800a4ed0     sfc_debug:sfdb_breakpoints.obj
 0002:00004f00       ??_C@_0DE@GNPGALGC@?$CIchart?9?$DObm?4transition?$FLtagType?$FN?$CJ?4@ 00000001800a4f00     sfc_debug:sfdb_breakpoints.obj
 0002:00004f38       ??_C@_0DB@PCFIPMMH@?$CImachine?9?$DObm?4event?$FLtagType?$FN?$CJ?4len@ 00000001800a4f38     sfc_debug:sfdb_breakpoints.obj
 0002:00004f70       ??_C@_0CP@FENPPAOI@?$CIchart?9?$DObm?4event?$FLtagType?$FN?$CJ?4lengt@ 00000001800a4f70     sfc_debug:sfdb_breakpoints.obj
 0002:00004fa0       ??_C@_0CH@EKAIFOIL@numCols?5?$DN?$DN?5TOTAL_EVENT_BREAKPOIN@ 00000001800a4fa0     sfc_debug:sfdb_breakpoints.obj
 0002:00004fc8       ??_C@_0CA@BECONEOF@numRows?5?$DN?$DN?5machine?9?$DOevent?4count?$AA@ 00000001800a4fc8     sfc_debug:sfdb_breakpoints.obj
 0002:00004fe8       ??_C@_07HCEBIAFG@get_bps?$AA@ 00000001800a4fe8     sfc_debug:sfdb_breakpoints.obj
 0002:00004ff0       ??_C@_0N@CNOINHPD@numCols?5?$DN?$DN?51?$AA@ 00000001800a4ff0     sfc_debug:sfdb_breakpoints.obj
 0002:00005000       ??_C@_0M@NNPJEEAE@get_eml_bps?$AA@ 00000001800a5000     sfc_debug:sfdb_breakpoints.obj
 0002:00005010       ??_C@_0BO@CDPAPHEM@numRows?5?$DN?$DN?5chart?9?$DOevent?4count?$AA@ 00000001800a5010     sfc_debug:sfdb_breakpoints.obj
 0002:00005030       ??_C@_0CM@FFJFHNEO@numCols?5?$DN?$DN?5TOTAL_TRANSITION_BREA@ 00000001800a5030     sfc_debug:sfdb_breakpoints.obj
 0002:00005060       ??_C@_0CD@IOIMPEBN@numRows?5?$DN?$DN?5chart?9?$DOtransition?4cou@ 00000001800a5060     sfc_debug:sfdb_breakpoints.obj
 0002:00005088       ??_C@_0CH@JEIBGOOJ@numCols?5?$DN?$DN?5TOTAL_STATE_BREAKPOIN@ 00000001800a5088     sfc_debug:sfdb_breakpoints.obj
 0002:000050b0       ??_C@_0BO@BIKNFPLB@numRows?5?$DN?$DN?5chart?9?$DOstate?4count?$AA@ 00000001800a50b0     sfc_debug:sfdb_breakpoints.obj
 0002:000050d0       ??_C@_0CH@BNLENKGD@numCols?5?$DN?$DN?5TOTAL_CHART_BREAKPOIN@ 00000001800a50d0     sfc_debug:sfdb_breakpoints.obj
 0002:000050f8       ??_C@_0N@MEFFBAFI@numRows?5?$DN?$DN?51?$AA@ 00000001800a50f8     sfc_debug:sfdb_breakpoints.obj
 0002:00005108       ??_C@_0BJ@BLHBHILO@sfdb_state_consistency?4c?$AA@ 00000001800a5108     sfc_debug:sfdb_state_consistency.obj
 0002:00005128       ??_C@_09LHFAMEGK@errorType?$AA@ 00000001800a5128     sfc_debug:sfdb_state_consistency.obj
 0002:00005138       ??_C@_08DLAIKNBK@objectId?$AA@ 00000001800a5138     sfc_debug:sfdb_state_consistency.obj
 0002:00005148       ??_C@_0L@GODCDFEF@objectType?$AA@ 00000001800a5148     sfc_debug:sfdb_state_consistency.obj
 0002:00005158       ??_C@_0L@CCGENCKP@errorStack?$AA@ 00000001800a5158     sfc_debug:sfdb_state_consistency.obj
 0002:00005168       ??_C@_0O@PPHMCEKO@cycleDetected?$AA@ 00000001800a5168     sfc_debug:sfdb_call_stack.obj
 0002:00005178       ??_C@_0N@MGKMJLEK@cycleStarted?$AA@ 00000001800a5178     sfc_debug:sfdb_call_stack.obj
 0002:00005188       ??_C@_07BNCILGOA@tagType?$AA@ 00000001800a5188     sfc_debug:sfdb_call_stack.obj
 0002:00005190       ??_C@_0L@POKIGEMP@eventScope?$AA@ 00000001800a5190     sfc_debug:sfdb_call_stack.obj
 0002:000051a0       ??_C@_0M@LKJJPLIC@traceVector?$AA@ 00000001800a51a0     sfc_debug:sfdb_call_stack.obj
 0002:000051b0       ??_C@_0EC@MGCLADPL@?$CIinstance?9?$DOcycleDetection?4transi@ 00000001800a51b0     sfc_debug:sfdb_cycle_detection.obj
 0002:000051f8       ??_C@_0BH@ELCAAKDD@sfdb_cycle_detection?4c?$AA@ 00000001800a51f8     sfc_debug:sfdb_cycle_detection.obj
 0002:00005210       ??_C@_0O@PICIAFIK@newNode?$CB?$DNNULL?$AA@ 00000001800a5210     sfc_debug:sfdb_cycle_detection.obj
 0002:00005220       _pDefaultRawDllMain        00000001800a5220     MSVCRT:crtdll.obj
 0002:00005220       _pRawDllMain               00000001800a5220     MSVCRT:crtdll.obj
 0002:00005238       ?ProcessDetach@NativeDll@<CrtImplementationDetails>@@0IB 00000001800a5238     MSVCRT:tncleanup.obj
 0002:0000523c       ?ProcessAttach@NativeDll@<CrtImplementationDetails>@@0IB 00000001800a523c     MSVCRT:tncleanup.obj
 0002:00005240       ?ThreadAttach@NativeDll@<CrtImplementationDetails>@@0IB 00000001800a5240     MSVCRT:tncleanup.obj
 0002:00005244       ?ThreadDetach@NativeDll@<CrtImplementationDetails>@@0IB 00000001800a5244     MSVCRT:tncleanup.obj
 0002:00005248       ?ProcessVerifier@NativeDll@<CrtImplementationDetails>@@0IB 00000001800a5248     MSVCRT:tncleanup.obj
 0002:00005250       __rtc_iaa                  00000001800a5250     MSVCRT:_initsect_.obj
 0002:00005258       __rtc_izz                  00000001800a5258     MSVCRT:_initsect_.obj
 0002:00005260       __rtc_taa                  00000001800a5260     MSVCRT:_initsect_.obj
 0002:00005268       __rtc_tzz                  00000001800a5268     MSVCRT:_initsect_.obj
 0002:0000a86c       __IMPORT_DESCRIPTOR_libmx  00000001800aa86c     libmx:libmx.dll
 0002:0000a880       __IMPORT_DESCRIPTOR_libmex 00000001800aa880     libmex:libmex.dll
 0002:0000a894       __IMPORT_DESCRIPTOR_libfixedpoint 00000001800aa894     libfixedpoint:libfixedpoint.dll
 0002:0000a8a8       __IMPORT_DESCRIPTOR_libut  00000001800aa8a8     libut:libut.dll
 0002:0000a8bc       __IMPORT_DESCRIPTOR_libmwmathutil 00000001800aa8bc     libmwmathutil:libmwmathutil.dll
 0002:0000a8d0       __IMPORT_DESCRIPTOR_libemlrt 00000001800aa8d0     libemlrt:libemlrt.dll
 0002:0000a8e4       __IMPORT_DESCRIPTOR_MSVCR90 00000001800aa8e4     MSVCRT:MSVCR90.dll
 0002:0000a8f8       __IMPORT_DESCRIPTOR_KERNEL32 00000001800aa8f8     kernel32:KERNEL32.dll
 0002:0000a90c       __NULL_IMPORT_DESCRIPTOR   00000001800aa90c     libmx:libmx.dll
 0003:0001a1f0       DYNAMIC_DIMENSION          00000001800c61f0     Tetraedro_model_sem_sim_com_FK_heur_sfun_registry.obj
 0003:0001b250       emlrtContextGlobal         00000001800c7250     sfc_mex:sfc_mex.obj
 0003:0001b2f0       _fltused                   00000001800c72f0     MSVCRT:dllsupp.obj
 0003:0001b2f8       __security_cookie          00000001800c72f8     MSVCRT:gs_cookie.obj
 0003:0001b300       __security_cookie_complement 00000001800c7300     MSVCRT:gs_cookie.obj
 0003:0001b310       __native_dllmain_reason    00000001800c7310     MSVCRT:natstart.obj
 0003:0001b314       __native_vcclrit_reason    00000001800c7314     MSVCRT:natstart.obj
 0003:0001b528       sfGlobalDebugInstanceStruct 00000001800c7528     Tetraedro_model_sem_sim_com_FK_heur_sfun_registry.obj
 0003:0001c670       emlrtRootTLSGlobal         00000001800c8670     sfc_mex:sfc_mex.obj
 0003:0001d770       ?__type_info_root_node@@3U__type_info_node@@A 00000001800c9770     MSVCRT:tncleanup.obj
 0003:0001d780       _sfTime_                   00000001800c9780     <common>
 0003:0001d788       _Tetraedro_model_sem_sim_com_FK_heurMachineNumber_ 00000001800c9788     <common>
 0003:0001d7a0       gSfComplexDataTypeOffsets  00000001800c97a0     <common>
 0003:0001d800       gSfDataTypeOffsets         00000001800c9800     <common>
 0003:0001d848       gMaskBits                  00000001800c9848     <common>
 0003:0001d850       __native_startup_state     00000001800c9850     <common>
 0003:0001d858       __native_startup_lock      00000001800c9858     <common>
 0003:0001d860       __onexitend                00000001800c9860     <common>
 0003:0001d868       __onexitbegin              00000001800c9868     <common>
 0003:0001d870       __dyn_tls_init_callback    00000001800c9870     <common>

 entry point at        0001:0009e134

 Static symbols

 0001:00000400       c1_info_helper             0000000180001400 f   c1_Tetraedro_model_sem_sim_com_FK_heur.obj
 0001:00002550       get_sim_state_c1_Tetraedro_model_sem_sim_com_FK_heur 0000000180003550 f   c1_Tetraedro_model_sem_sim_com_FK_heur.obj
 0001:00002730       sf_get_sim_state_info_c1_Tetraedro_model_sem_sim_com_FK_heur 0000000180003730 f   c1_Tetraedro_model_sem_sim_com_FK_heur.obj
 0001:00002910       set_sim_state_c1_Tetraedro_model_sem_sim_com_FK_heur 0000000180003910 f   c1_Tetraedro_model_sem_sim_com_FK_heur.obj
 0001:00002a20       c1_update_debugger_state_c1_Tetraedro_model_sem_sim_com_FK_heur 0000000180003a20 f   c1_Tetraedro_model_sem_sim_com_FK_heur.obj
 0001:00002a30       c1_emlrt_marshallIn        0000000180003a30 f   c1_Tetraedro_model_sem_sim_com_FK_heur.obj
 0001:00002aa0       c1_b_emlrt_marshallIn      0000000180003aa0 f   c1_Tetraedro_model_sem_sim_com_FK_heur.obj
 0001:00002b70       c1_h_emlrt_marshallIn      0000000180003b70 f   c1_Tetraedro_model_sem_sim_com_FK_heur.obj
 0001:00002bd0       c1_i_emlrt_marshallIn      0000000180003bd0 f   c1_Tetraedro_model_sem_sim_com_FK_heur.obj
 0001:00002cd0       mdlProcessParameters_c1_Tetraedro_model_sem_sim_com_FK_heur 0000000180003cd0 f   c1_Tetraedro_model_sem_sim_com_FK_heur.obj
 0001:00002d90       initialize_params_c1_Tetraedro_model_sem_sim_com_FK_heur 0000000180003d90 f   c1_Tetraedro_model_sem_sim_com_FK_heur.obj
 0001:00002da0       mdlSetWorkWidths_c1_Tetraedro_model_sem_sim_com_FK_heur 0000000180003da0 f   c1_Tetraedro_model_sem_sim_com_FK_heur.obj
 0001:00003320       sf_get_instance_specialization 0000000180004320 f   c1_Tetraedro_model_sem_sim_com_FK_heur.obj
 0001:00003330       mdlStart_c1_Tetraedro_model_sem_sim_com_FK_heur 0000000180004330 f   c1_Tetraedro_model_sem_sim_com_FK_heur.obj
 0001:00003530       init_dsm_address_info      0000000180004530 f   c1_Tetraedro_model_sem_sim_com_FK_heur.obj
 0001:00003540       chart_debug_initialization 0000000180004540 f   c1_Tetraedro_model_sem_sim_com_FK_heur.obj
 0001:000041b0       init_script_number_translation 00000001800051b0 f   c1_Tetraedro_model_sem_sim_com_FK_heur.obj
 0001:000041c0       c1_sf_marshallOut          00000001800051c0 f   c1_Tetraedro_model_sem_sim_com_FK_heur.obj
 0001:00004300       c1_sf_marshallIn           0000000180005300 f   c1_Tetraedro_model_sem_sim_com_FK_heur.obj
 0001:000043e0       sf_opaque_initialize_c1_Tetraedro_model_sem_sim_com_FK_heur 00000001800053e0 f   c1_Tetraedro_model_sem_sim_com_FK_heur.obj
 0001:00004420       initialize_c1_Tetraedro_model_sem_sim_com_FK_heur 0000000180005420 f   c1_Tetraedro_model_sem_sim_com_FK_heur.obj
 0001:00004470       sf_opaque_enable_c1_Tetraedro_model_sem_sim_com_FK_heur 0000000180005470 f   c1_Tetraedro_model_sem_sim_com_FK_heur.obj
 0001:00004490       enable_c1_Tetraedro_model_sem_sim_com_FK_heur 0000000180005490 f   c1_Tetraedro_model_sem_sim_com_FK_heur.obj
 0001:000044c0       sf_opaque_disable_c1_Tetraedro_model_sem_sim_com_FK_heur 00000001800054c0 f   c1_Tetraedro_model_sem_sim_com_FK_heur.obj
 0001:000044e0       disable_c1_Tetraedro_model_sem_sim_com_FK_heur 00000001800054e0 f   c1_Tetraedro_model_sem_sim_com_FK_heur.obj
 0001:00004510       sf_opaque_gateway_c1_Tetraedro_model_sem_sim_com_FK_heur 0000000180005510 f   c1_Tetraedro_model_sem_sim_com_FK_heur.obj
 0001:00004530       sf_c1_Tetraedro_model_sem_sim_com_FK_heur 0000000180005530 f   c1_Tetraedro_model_sem_sim_com_FK_heur.obj
 0001:00004940       c1_chartstep_c1_Tetraedro_model_sem_sim_com_FK_heur 0000000180005940 f   c1_Tetraedro_model_sem_sim_com_FK_heur.obj
 0001:00005d00       c1_b_sf_marshallOut        0000000180006d00 f   c1_Tetraedro_model_sem_sim_com_FK_heur.obj
 0001:00005db0       c1_b_sf_marshallIn         0000000180006db0 f   c1_Tetraedro_model_sem_sim_com_FK_heur.obj
 0001:00005e50       c1_c_emlrt_marshallIn      0000000180006e50 f   c1_Tetraedro_model_sem_sim_com_FK_heur.obj
 0001:00005ee0       c1_c_sf_marshallOut        0000000180006ee0 f   c1_Tetraedro_model_sem_sim_com_FK_heur.obj
 0001:000060f0       c1_c_sf_marshallIn         00000001800070f0 f   c1_Tetraedro_model_sem_sim_com_FK_heur.obj
 0001:00006230       c1_d_emlrt_marshallIn      0000000180007230 f   c1_Tetraedro_model_sem_sim_com_FK_heur.obj
 0001:00006310       c1_diag                    0000000180007310 f   c1_Tetraedro_model_sem_sim_com_FK_heur.obj
 0001:000065f0       c1_inv                     00000001800075f0 f   c1_Tetraedro_model_sem_sim_com_FK_heur.obj
 0001:00006c20       c1_inv3x3                  0000000180007c20 f   c1_Tetraedro_model_sem_sim_com_FK_heur.obj
 0001:000081c0       c1_norm                    00000001800091c0 f   c1_Tetraedro_model_sem_sim_com_FK_heur.obj
 0001:000084e0       c1_eml_warning             00000001800094e0 f   c1_Tetraedro_model_sem_sim_com_FK_heur.obj
 0001:00008600       c1_b_eml_warning           0000000180009600 f   c1_Tetraedro_model_sem_sim_com_FK_heur.obj
 0001:000087f0       c1_eml_scalar_eg           00000001800097f0 f   c1_Tetraedro_model_sem_sim_com_FK_heur.obj
 0001:00008800       c1_b_eml_scalar_eg         0000000180009800 f   c1_Tetraedro_model_sem_sim_com_FK_heur.obj
 0001:00008810       c1_e_emlrt_marshallIn      0000000180009810 f   c1_Tetraedro_model_sem_sim_com_FK_heur.obj
 0001:00008880       c1_f_emlrt_marshallIn      0000000180009880 f   c1_Tetraedro_model_sem_sim_com_FK_heur.obj
 0001:00008980       sf_opaque_get_sim_state_c1_Tetraedro_model_sem_sim_com_FK_heur 0000000180009980 f   c1_Tetraedro_model_sem_sim_com_FK_heur.obj
 0001:000089a0       sf_opaque_set_sim_state_c1_Tetraedro_model_sem_sim_com_FK_heur 00000001800099a0 f   c1_Tetraedro_model_sem_sim_com_FK_heur.obj
 0001:000089d0       sf_opaque_terminate_c1_Tetraedro_model_sem_sim_com_FK_heur 00000001800099d0 f   c1_Tetraedro_model_sem_sim_com_FK_heur.obj
 0001:00008a50       finalize_c1_Tetraedro_model_sem_sim_com_FK_heur 0000000180009a50 f   c1_Tetraedro_model_sem_sim_com_FK_heur.obj
 0001:00008a60       sf_opaque_init_subchart_simstructs 0000000180009a60 f   c1_Tetraedro_model_sem_sim_com_FK_heur.obj
 0001:00008a80       initSimStructsc1_Tetraedro_model_sem_sim_com_FK_heur 0000000180009a80 f   c1_Tetraedro_model_sem_sim_com_FK_heur.obj
 0001:00008a90       mdlRTW_c1_Tetraedro_model_sem_sim_com_FK_heur 0000000180009a90 f   c1_Tetraedro_model_sem_sim_com_FK_heur.obj
 0001:00008f50       c2_info_helper             0000000180009f50 f   c2_Tetraedro_model_sem_sim_com_FK_heur.obj
 0001:0000aa60       get_sim_state_c2_Tetraedro_model_sem_sim_com_FK_heur 000000018000ba60 f   c2_Tetraedro_model_sem_sim_com_FK_heur.obj
 0001:0000ac40       sf_get_sim_state_info_c2_Tetraedro_model_sem_sim_com_FK_heur 000000018000bc40 f   c2_Tetraedro_model_sem_sim_com_FK_heur.obj
 0001:0000ae20       set_sim_state_c2_Tetraedro_model_sem_sim_com_FK_heur 000000018000be20 f   c2_Tetraedro_model_sem_sim_com_FK_heur.obj
 0001:0000af30       c2_update_debugger_state_c2_Tetraedro_model_sem_sim_com_FK_heur 000000018000bf30 f   c2_Tetraedro_model_sem_sim_com_FK_heur.obj
 0001:0000af40       c2_emlrt_marshallIn        000000018000bf40 f   c2_Tetraedro_model_sem_sim_com_FK_heur.obj
 0001:0000afb0       c2_b_emlrt_marshallIn      000000018000bfb0 f   c2_Tetraedro_model_sem_sim_com_FK_heur.obj
 0001:0000b080       c2_h_emlrt_marshallIn      000000018000c080 f   c2_Tetraedro_model_sem_sim_com_FK_heur.obj
 0001:0000b0e0       c2_i_emlrt_marshallIn      000000018000c0e0 f   c2_Tetraedro_model_sem_sim_com_FK_heur.obj
 0001:0000b1e0       mdlProcessParameters_c2_Tetraedro_model_sem_sim_com_FK_heur 000000018000c1e0 f   c2_Tetraedro_model_sem_sim_com_FK_heur.obj
 0001:0000b2a0       initialize_params_c2_Tetraedro_model_sem_sim_com_FK_heur 000000018000c2a0 f   c2_Tetraedro_model_sem_sim_com_FK_heur.obj
 0001:0000b2b0       mdlSetWorkWidths_c2_Tetraedro_model_sem_sim_com_FK_heur 000000018000c2b0 f   c2_Tetraedro_model_sem_sim_com_FK_heur.obj
 0001:0000b7d0       sf_get_instance_specialization 000000018000c7d0 f   c2_Tetraedro_model_sem_sim_com_FK_heur.obj
 0001:0000b7e0       mdlStart_c2_Tetraedro_model_sem_sim_com_FK_heur 000000018000c7e0 f   c2_Tetraedro_model_sem_sim_com_FK_heur.obj
 0001:0000b9e0       init_dsm_address_info      000000018000c9e0 f   c2_Tetraedro_model_sem_sim_com_FK_heur.obj
 0001:0000b9f0       chart_debug_initialization 000000018000c9f0 f   c2_Tetraedro_model_sem_sim_com_FK_heur.obj
 0001:0000c380       init_script_number_translation 000000018000d380 f   c2_Tetraedro_model_sem_sim_com_FK_heur.obj
 0001:0000c390       c2_sf_marshallOut          000000018000d390 f   c2_Tetraedro_model_sem_sim_com_FK_heur.obj
 0001:0000c4d0       c2_sf_marshallIn           000000018000d4d0 f   c2_Tetraedro_model_sem_sim_com_FK_heur.obj
 0001:0000c5b0       c2_b_sf_marshallOut        000000018000d5b0 f   c2_Tetraedro_model_sem_sim_com_FK_heur.obj
 0001:0000c6f0       sf_opaque_initialize_c2_Tetraedro_model_sem_sim_com_FK_heur 000000018000d6f0 f   c2_Tetraedro_model_sem_sim_com_FK_heur.obj
 0001:0000c730       initialize_c2_Tetraedro_model_sem_sim_com_FK_heur 000000018000d730 f   c2_Tetraedro_model_sem_sim_com_FK_heur.obj
 0001:0000c780       sf_opaque_enable_c2_Tetraedro_model_sem_sim_com_FK_heur 000000018000d780 f   c2_Tetraedro_model_sem_sim_com_FK_heur.obj
 0001:0000c7a0       enable_c2_Tetraedro_model_sem_sim_com_FK_heur 000000018000d7a0 f   c2_Tetraedro_model_sem_sim_com_FK_heur.obj
 0001:0000c7d0       sf_opaque_disable_c2_Tetraedro_model_sem_sim_com_FK_heur 000000018000d7d0 f   c2_Tetraedro_model_sem_sim_com_FK_heur.obj
 0001:0000c7f0       disable_c2_Tetraedro_model_sem_sim_com_FK_heur 000000018000d7f0 f   c2_Tetraedro_model_sem_sim_com_FK_heur.obj
 0001:0000c820       sf_opaque_gateway_c2_Tetraedro_model_sem_sim_com_FK_heur 000000018000d820 f   c2_Tetraedro_model_sem_sim_com_FK_heur.obj
 0001:0000c840       sf_c2_Tetraedro_model_sem_sim_com_FK_heur 000000018000d840 f   c2_Tetraedro_model_sem_sim_com_FK_heur.obj
 0001:0000cb00       c2_chartstep_c2_Tetraedro_model_sem_sim_com_FK_heur 000000018000db00 f   c2_Tetraedro_model_sem_sim_com_FK_heur.obj
 0001:0000dd40       c2_c_sf_marshallOut        000000018000ed40 f   c2_Tetraedro_model_sem_sim_com_FK_heur.obj
 0001:0000ddf0       c2_b_sf_marshallIn         000000018000edf0 f   c2_Tetraedro_model_sem_sim_com_FK_heur.obj
 0001:0000de90       c2_c_emlrt_marshallIn      000000018000ee90 f   c2_Tetraedro_model_sem_sim_com_FK_heur.obj
 0001:0000df20       c2_d_sf_marshallOut        000000018000ef20 f   c2_Tetraedro_model_sem_sim_com_FK_heur.obj
 0001:0000e120       c2_c_sf_marshallIn         000000018000f120 f   c2_Tetraedro_model_sem_sim_com_FK_heur.obj
 0001:0000e200       c2_d_emlrt_marshallIn      000000018000f200 f   c2_Tetraedro_model_sem_sim_com_FK_heur.obj
 0001:0000e2d0       c2_inv                     000000018000f2d0 f   c2_Tetraedro_model_sem_sim_com_FK_heur.obj
 0001:0000e910       c2_inv3x3                  000000018000f910 f   c2_Tetraedro_model_sem_sim_com_FK_heur.obj
 0001:0000fec0       c2_norm                    0000000180010ec0 f   c2_Tetraedro_model_sem_sim_com_FK_heur.obj
 0001:000101e0       c2_eml_warning             00000001800111e0 f   c2_Tetraedro_model_sem_sim_com_FK_heur.obj
 0001:00010300       c2_b_eml_warning           0000000180011300 f   c2_Tetraedro_model_sem_sim_com_FK_heur.obj
 0001:000104e0       c2_eml_scalar_eg           00000001800114e0 f   c2_Tetraedro_model_sem_sim_com_FK_heur.obj
 0001:000104f0       c2_b_eml_scalar_eg         00000001800114f0 f   c2_Tetraedro_model_sem_sim_com_FK_heur.obj
 0001:00010500       c2_e_emlrt_marshallIn      0000000180011500 f   c2_Tetraedro_model_sem_sim_com_FK_heur.obj
 0001:00010570       c2_f_emlrt_marshallIn      0000000180011570 f   c2_Tetraedro_model_sem_sim_com_FK_heur.obj
 0001:00010670       sf_opaque_get_sim_state_c2_Tetraedro_model_sem_sim_com_FK_heur 0000000180011670 f   c2_Tetraedro_model_sem_sim_com_FK_heur.obj
 0001:00010690       sf_opaque_set_sim_state_c2_Tetraedro_model_sem_sim_com_FK_heur 0000000180011690 f   c2_Tetraedro_model_sem_sim_com_FK_heur.obj
 0001:000106c0       sf_opaque_terminate_c2_Tetraedro_model_sem_sim_com_FK_heur 00000001800116c0 f   c2_Tetraedro_model_sem_sim_com_FK_heur.obj
 0001:00010740       finalize_c2_Tetraedro_model_sem_sim_com_FK_heur 0000000180011740 f   c2_Tetraedro_model_sem_sim_com_FK_heur.obj
 0001:00010750       sf_opaque_init_subchart_simstructs 0000000180011750 f   c2_Tetraedro_model_sem_sim_com_FK_heur.obj
 0001:00010770       initSimStructsc2_Tetraedro_model_sem_sim_com_FK_heur 0000000180011770 f   c2_Tetraedro_model_sem_sim_com_FK_heur.obj
 0001:00010780       mdlRTW_c2_Tetraedro_model_sem_sim_com_FK_heur 0000000180011780 f   c2_Tetraedro_model_sem_sim_com_FK_heur.obj
 0001:00010c10       c3_info_helper             0000000180011c10 f   c3_Tetraedro_model_sem_sim_com_FK_heur.obj
 0001:00012080       get_sim_state_c3_Tetraedro_model_sem_sim_com_FK_heur 0000000180013080 f   c3_Tetraedro_model_sem_sim_com_FK_heur.obj
 0001:00012270       sf_get_sim_state_info_c3_Tetraedro_model_sem_sim_com_FK_heur 0000000180013270 f   c3_Tetraedro_model_sem_sim_com_FK_heur.obj
 0001:00012450       set_sim_state_c3_Tetraedro_model_sem_sim_com_FK_heur 0000000180013450 f   c3_Tetraedro_model_sem_sim_com_FK_heur.obj
 0001:00012560       c3_update_debugger_state_c3_Tetraedro_model_sem_sim_com_FK_heur 0000000180013560 f   c3_Tetraedro_model_sem_sim_com_FK_heur.obj
 0001:00012570       c3_emlrt_marshallIn        0000000180013570 f   c3_Tetraedro_model_sem_sim_com_FK_heur.obj
 0001:000125e0       c3_b_emlrt_marshallIn      00000001800135e0 f   c3_Tetraedro_model_sem_sim_com_FK_heur.obj
 0001:000126c0       c3_f_emlrt_marshallIn      00000001800136c0 f   c3_Tetraedro_model_sem_sim_com_FK_heur.obj
 0001:00012720       c3_g_emlrt_marshallIn      0000000180013720 f   c3_Tetraedro_model_sem_sim_com_FK_heur.obj
 0001:00012820       mdlProcessParameters_c3_Tetraedro_model_sem_sim_com_FK_heur 0000000180013820 f   c3_Tetraedro_model_sem_sim_com_FK_heur.obj
 0001:000128e0       initialize_params_c3_Tetraedro_model_sem_sim_com_FK_heur 00000001800138e0 f   c3_Tetraedro_model_sem_sim_com_FK_heur.obj
 0001:000128f0       mdlSetWorkWidths_c3_Tetraedro_model_sem_sim_com_FK_heur 00000001800138f0 f   c3_Tetraedro_model_sem_sim_com_FK_heur.obj
 0001:00012de0       sf_get_instance_specialization 0000000180013de0 f   c3_Tetraedro_model_sem_sim_com_FK_heur.obj
 0001:00012df0       mdlStart_c3_Tetraedro_model_sem_sim_com_FK_heur 0000000180013df0 f   c3_Tetraedro_model_sem_sim_com_FK_heur.obj
 0001:00012ff0       init_dsm_address_info      0000000180013ff0 f   c3_Tetraedro_model_sem_sim_com_FK_heur.obj
 0001:00013000       chart_debug_initialization 0000000180014000 f   c3_Tetraedro_model_sem_sim_com_FK_heur.obj
 0001:00013830       init_script_number_translation 0000000180014830 f   c3_Tetraedro_model_sem_sim_com_FK_heur.obj
 0001:00013840       c3_sf_marshallOut          0000000180014840 f   c3_Tetraedro_model_sem_sim_com_FK_heur.obj
 0001:000139a0       c3_sf_marshallIn           00000001800149a0 f   c3_Tetraedro_model_sem_sim_com_FK_heur.obj
 0001:00013a80       c3_b_sf_marshallOut        0000000180014a80 f   c3_Tetraedro_model_sem_sim_com_FK_heur.obj
 0001:00013bc0       sf_opaque_initialize_c3_Tetraedro_model_sem_sim_com_FK_heur 0000000180014bc0 f   c3_Tetraedro_model_sem_sim_com_FK_heur.obj
 0001:00013c00       initialize_c3_Tetraedro_model_sem_sim_com_FK_heur 0000000180014c00 f   c3_Tetraedro_model_sem_sim_com_FK_heur.obj
 0001:00013c50       sf_opaque_enable_c3_Tetraedro_model_sem_sim_com_FK_heur 0000000180014c50 f   c3_Tetraedro_model_sem_sim_com_FK_heur.obj
 0001:00013c70       enable_c3_Tetraedro_model_sem_sim_com_FK_heur 0000000180014c70 f   c3_Tetraedro_model_sem_sim_com_FK_heur.obj
 0001:00013ca0       sf_opaque_disable_c3_Tetraedro_model_sem_sim_com_FK_heur 0000000180014ca0 f   c3_Tetraedro_model_sem_sim_com_FK_heur.obj
 0001:00013cc0       disable_c3_Tetraedro_model_sem_sim_com_FK_heur 0000000180014cc0 f   c3_Tetraedro_model_sem_sim_com_FK_heur.obj
 0001:00013cf0       sf_opaque_gateway_c3_Tetraedro_model_sem_sim_com_FK_heur 0000000180014cf0 f   c3_Tetraedro_model_sem_sim_com_FK_heur.obj
 0001:00013d10       sf_c3_Tetraedro_model_sem_sim_com_FK_heur 0000000180014d10 f   c3_Tetraedro_model_sem_sim_com_FK_heur.obj
 0001:00013f40       c3_chartstep_c3_Tetraedro_model_sem_sim_com_FK_heur 0000000180014f40 f   c3_Tetraedro_model_sem_sim_com_FK_heur.obj
 0001:00014cb0       c3_c_sf_marshallOut        0000000180015cb0 f   c3_Tetraedro_model_sem_sim_com_FK_heur.obj
 0001:00014d60       c3_b_sf_marshallIn         0000000180015d60 f   c3_Tetraedro_model_sem_sim_com_FK_heur.obj
 0001:00014e00       c3_c_emlrt_marshallIn      0000000180015e00 f   c3_Tetraedro_model_sem_sim_com_FK_heur.obj
 0001:00014e90       c3_d_sf_marshallOut        0000000180015e90 f   c3_Tetraedro_model_sem_sim_com_FK_heur.obj
 0001:00014fe0       c3_c_sf_marshallIn         0000000180015fe0 f   c3_Tetraedro_model_sem_sim_com_FK_heur.obj
 0001:000150c0       c3_d_emlrt_marshallIn      00000001800160c0 f   c3_Tetraedro_model_sem_sim_com_FK_heur.obj
 0001:000151a0       c3_realmin                 00000001800161a0 f   c3_Tetraedro_model_sem_sim_com_FK_heur.obj
 0001:000151b0       c3_eml_error               00000001800161b0 f   c3_Tetraedro_model_sem_sim_com_FK_heur.obj
 0001:00015380       sf_opaque_get_sim_state_c3_Tetraedro_model_sem_sim_com_FK_heur 0000000180016380 f   c3_Tetraedro_model_sem_sim_com_FK_heur.obj
 0001:000153a0       sf_opaque_set_sim_state_c3_Tetraedro_model_sem_sim_com_FK_heur 00000001800163a0 f   c3_Tetraedro_model_sem_sim_com_FK_heur.obj
 0001:000153d0       sf_opaque_terminate_c3_Tetraedro_model_sem_sim_com_FK_heur 00000001800163d0 f   c3_Tetraedro_model_sem_sim_com_FK_heur.obj
 0001:00015450       finalize_c3_Tetraedro_model_sem_sim_com_FK_heur 0000000180016450 f   c3_Tetraedro_model_sem_sim_com_FK_heur.obj
 0001:00015460       sf_opaque_init_subchart_simstructs 0000000180016460 f   c3_Tetraedro_model_sem_sim_com_FK_heur.obj
 0001:00015480       initSimStructsc3_Tetraedro_model_sem_sim_com_FK_heur 0000000180016480 f   c3_Tetraedro_model_sem_sim_com_FK_heur.obj
 0001:00015490       mdlRTW_c3_Tetraedro_model_sem_sim_com_FK_heur 0000000180016490 f   c3_Tetraedro_model_sem_sim_com_FK_heur.obj
 0001:000162d0       get_sim_state_c4_Tetraedro_model_sem_sim_com_FK_heur 00000001800172d0 f   c4_Tetraedro_model_sem_sim_com_FK_heur.obj
 0001:000167a0       sf_get_sim_state_info_c4_Tetraedro_model_sem_sim_com_FK_heur 00000001800177a0 f   c4_Tetraedro_model_sem_sim_com_FK_heur.obj
 0001:00016980       set_sim_state_c4_Tetraedro_model_sem_sim_com_FK_heur 0000000180017980 f   c4_Tetraedro_model_sem_sim_com_FK_heur.obj
 0001:00016cb0       c4_update_debugger_state_c4_Tetraedro_model_sem_sim_com_FK_heur 0000000180017cb0 f   c4_Tetraedro_model_sem_sim_com_FK_heur.obj
 0001:00016cc0       c4_emlrt_marshallIn        0000000180017cc0 f   c4_Tetraedro_model_sem_sim_com_FK_heur.obj
 0001:00016d30       c4_b_emlrt_marshallIn      0000000180017d30 f   c4_Tetraedro_model_sem_sim_com_FK_heur.obj
 0001:00016e00       c4_e_emlrt_marshallIn      0000000180017e00 f   c4_Tetraedro_model_sem_sim_com_FK_heur.obj
 0001:00016e60       c4_f_emlrt_marshallIn      0000000180017e60 f   c4_Tetraedro_model_sem_sim_com_FK_heur.obj
 0001:00016f60       mdlProcessParameters_c4_Tetraedro_model_sem_sim_com_FK_heur 0000000180017f60 f   c4_Tetraedro_model_sem_sim_com_FK_heur.obj
 0001:00017020       initialize_params_c4_Tetraedro_model_sem_sim_com_FK_heur 0000000180018020 f   c4_Tetraedro_model_sem_sim_com_FK_heur.obj
 0001:00017030       mdlSetWorkWidths_c4_Tetraedro_model_sem_sim_com_FK_heur 0000000180018030 f   c4_Tetraedro_model_sem_sim_com_FK_heur.obj
 0001:000175b0       sf_get_instance_specialization 00000001800185b0 f   c4_Tetraedro_model_sem_sim_com_FK_heur.obj
 0001:000175c0       mdlStart_c4_Tetraedro_model_sem_sim_com_FK_heur 00000001800185c0 f   c4_Tetraedro_model_sem_sim_com_FK_heur.obj
 0001:000177c0       init_dsm_address_info      00000001800187c0 f   c4_Tetraedro_model_sem_sim_com_FK_heur.obj
 0001:000177d0       chart_debug_initialization 00000001800187d0 f   c4_Tetraedro_model_sem_sim_com_FK_heur.obj
 0001:00018900       init_script_number_translation 0000000180019900 f   c4_Tetraedro_model_sem_sim_com_FK_heur.obj
 0001:00018910       c4_sf_marshallOut          0000000180019910 f   c4_Tetraedro_model_sem_sim_com_FK_heur.obj
 0001:00018a40       c4_sf_marshallIn           0000000180019a40 f   c4_Tetraedro_model_sem_sim_com_FK_heur.obj
 0001:00018b20       c4_b_sf_marshallOut        0000000180019b20 f   c4_Tetraedro_model_sem_sim_com_FK_heur.obj
 0001:00018bd0       c4_c_sf_marshallOut        0000000180019bd0 f   c4_Tetraedro_model_sem_sim_com_FK_heur.obj
 0001:00018d20       sf_opaque_initialize_c4_Tetraedro_model_sem_sim_com_FK_heur 0000000180019d20 f   c4_Tetraedro_model_sem_sim_com_FK_heur.obj
 0001:00018d60       initialize_c4_Tetraedro_model_sem_sim_com_FK_heur 0000000180019d60 f   c4_Tetraedro_model_sem_sim_com_FK_heur.obj
 0001:00018db0       sf_opaque_enable_c4_Tetraedro_model_sem_sim_com_FK_heur 0000000180019db0 f   c4_Tetraedro_model_sem_sim_com_FK_heur.obj
 0001:00018dd0       enable_c4_Tetraedro_model_sem_sim_com_FK_heur 0000000180019dd0 f   c4_Tetraedro_model_sem_sim_com_FK_heur.obj
 0001:00018e00       sf_opaque_disable_c4_Tetraedro_model_sem_sim_com_FK_heur 0000000180019e00 f   c4_Tetraedro_model_sem_sim_com_FK_heur.obj
 0001:00018e20       disable_c4_Tetraedro_model_sem_sim_com_FK_heur 0000000180019e20 f   c4_Tetraedro_model_sem_sim_com_FK_heur.obj
 0001:00018e50       sf_opaque_gateway_c4_Tetraedro_model_sem_sim_com_FK_heur 0000000180019e50 f   c4_Tetraedro_model_sem_sim_com_FK_heur.obj
 0001:00018e70       sf_c4_Tetraedro_model_sem_sim_com_FK_heur 0000000180019e70 f   c4_Tetraedro_model_sem_sim_com_FK_heur.obj
 0001:0001a590       c4_b_sf_marshallIn         000000018001b590 f   c4_Tetraedro_model_sem_sim_com_FK_heur.obj
 0001:0001a630       c4_c_emlrt_marshallIn      000000018001b630 f   c4_Tetraedro_model_sem_sim_com_FK_heur.obj
 0001:0001a6c0       sf_opaque_get_sim_state_c4_Tetraedro_model_sem_sim_com_FK_heur 000000018001b6c0 f   c4_Tetraedro_model_sem_sim_com_FK_heur.obj
 0001:0001a6e0       sf_opaque_set_sim_state_c4_Tetraedro_model_sem_sim_com_FK_heur 000000018001b6e0 f   c4_Tetraedro_model_sem_sim_com_FK_heur.obj
 0001:0001a710       sf_opaque_terminate_c4_Tetraedro_model_sem_sim_com_FK_heur 000000018001b710 f   c4_Tetraedro_model_sem_sim_com_FK_heur.obj
 0001:0001a790       finalize_c4_Tetraedro_model_sem_sim_com_FK_heur 000000018001b790 f   c4_Tetraedro_model_sem_sim_com_FK_heur.obj
 0001:0001a7a0       sf_opaque_init_subchart_simstructs 000000018001b7a0 f   c4_Tetraedro_model_sem_sim_com_FK_heur.obj
 0001:0001a7c0       initSimStructsc4_Tetraedro_model_sem_sim_com_FK_heur 000000018001b7c0 f   c4_Tetraedro_model_sem_sim_com_FK_heur.obj
 0001:0001a7d0       mdlRTW_c4_Tetraedro_model_sem_sim_com_FK_heur 000000018001b7d0 f   c4_Tetraedro_model_sem_sim_com_FK_heur.obj
 0001:0001ac70       c5_info_helper             000000018001bc70 f   c5_Tetraedro_model_sem_sim_com_FK_heur.obj
 0001:0001cdc0       get_sim_state_c5_Tetraedro_model_sem_sim_com_FK_heur 000000018001ddc0 f   c5_Tetraedro_model_sem_sim_com_FK_heur.obj
 0001:0001cf90       sf_get_sim_state_info_c5_Tetraedro_model_sem_sim_com_FK_heur 000000018001df90 f   c5_Tetraedro_model_sem_sim_com_FK_heur.obj
 0001:0001d170       set_sim_state_c5_Tetraedro_model_sem_sim_com_FK_heur 000000018001e170 f   c5_Tetraedro_model_sem_sim_com_FK_heur.obj
 0001:0001d280       c5_update_debugger_state_c5_Tetraedro_model_sem_sim_com_FK_heur 000000018001e280 f   c5_Tetraedro_model_sem_sim_com_FK_heur.obj
 0001:0001d290       c5_emlrt_marshallIn        000000018001e290 f   c5_Tetraedro_model_sem_sim_com_FK_heur.obj
 0001:0001d300       c5_b_emlrt_marshallIn      000000018001e300 f   c5_Tetraedro_model_sem_sim_com_FK_heur.obj
 0001:0001d3d0       c5_h_emlrt_marshallIn      000000018001e3d0 f   c5_Tetraedro_model_sem_sim_com_FK_heur.obj
 0001:0001d430       c5_i_emlrt_marshallIn      000000018001e430 f   c5_Tetraedro_model_sem_sim_com_FK_heur.obj
 0001:0001d530       mdlProcessParameters_c5_Tetraedro_model_sem_sim_com_FK_heur 000000018001e530 f   c5_Tetraedro_model_sem_sim_com_FK_heur.obj
 0001:0001d5f0       initialize_params_c5_Tetraedro_model_sem_sim_com_FK_heur 000000018001e5f0 f   c5_Tetraedro_model_sem_sim_com_FK_heur.obj
 0001:0001d600       mdlSetWorkWidths_c5_Tetraedro_model_sem_sim_com_FK_heur 000000018001e600 f   c5_Tetraedro_model_sem_sim_com_FK_heur.obj
 0001:0001db80       sf_get_instance_specialization 000000018001eb80 f   c5_Tetraedro_model_sem_sim_com_FK_heur.obj
 0001:0001db90       mdlStart_c5_Tetraedro_model_sem_sim_com_FK_heur 000000018001eb90 f   c5_Tetraedro_model_sem_sim_com_FK_heur.obj
 0001:0001dd90       init_dsm_address_info      000000018001ed90 f   c5_Tetraedro_model_sem_sim_com_FK_heur.obj
 0001:0001dda0       chart_debug_initialization 000000018001eda0 f   c5_Tetraedro_model_sem_sim_com_FK_heur.obj
 0001:0001ea10       init_script_number_translation 000000018001fa10 f   c5_Tetraedro_model_sem_sim_com_FK_heur.obj
 0001:0001ea20       c5_sf_marshallOut          000000018001fa20 f   c5_Tetraedro_model_sem_sim_com_FK_heur.obj
 0001:0001eb60       c5_sf_marshallIn           000000018001fb60 f   c5_Tetraedro_model_sem_sim_com_FK_heur.obj
 0001:0001ec40       sf_opaque_initialize_c5_Tetraedro_model_sem_sim_com_FK_heur 000000018001fc40 f   c5_Tetraedro_model_sem_sim_com_FK_heur.obj
 0001:0001ec80       initialize_c5_Tetraedro_model_sem_sim_com_FK_heur 000000018001fc80 f   c5_Tetraedro_model_sem_sim_com_FK_heur.obj
 0001:0001ecd0       sf_opaque_enable_c5_Tetraedro_model_sem_sim_com_FK_heur 000000018001fcd0 f   c5_Tetraedro_model_sem_sim_com_FK_heur.obj
 0001:0001ecf0       enable_c5_Tetraedro_model_sem_sim_com_FK_heur 000000018001fcf0 f   c5_Tetraedro_model_sem_sim_com_FK_heur.obj
 0001:0001ed20       sf_opaque_disable_c5_Tetraedro_model_sem_sim_com_FK_heur 000000018001fd20 f   c5_Tetraedro_model_sem_sim_com_FK_heur.obj
 0001:0001ed40       disable_c5_Tetraedro_model_sem_sim_com_FK_heur 000000018001fd40 f   c5_Tetraedro_model_sem_sim_com_FK_heur.obj
 0001:0001ed70       sf_opaque_gateway_c5_Tetraedro_model_sem_sim_com_FK_heur 000000018001fd70 f   c5_Tetraedro_model_sem_sim_com_FK_heur.obj
 0001:0001ed90       sf_c5_Tetraedro_model_sem_sim_com_FK_heur 000000018001fd90 f   c5_Tetraedro_model_sem_sim_com_FK_heur.obj
 0001:0001f180       c5_chartstep_c5_Tetraedro_model_sem_sim_com_FK_heur 0000000180020180 f   c5_Tetraedro_model_sem_sim_com_FK_heur.obj
 0001:00020530       c5_b_sf_marshallOut        0000000180021530 f   c5_Tetraedro_model_sem_sim_com_FK_heur.obj
 0001:000205e0       c5_b_sf_marshallIn         00000001800215e0 f   c5_Tetraedro_model_sem_sim_com_FK_heur.obj
 0001:00020680       c5_c_emlrt_marshallIn      0000000180021680 f   c5_Tetraedro_model_sem_sim_com_FK_heur.obj
 0001:00020710       c5_c_sf_marshallOut        0000000180021710 f   c5_Tetraedro_model_sem_sim_com_FK_heur.obj
 0001:00020920       c5_c_sf_marshallIn         0000000180021920 f   c5_Tetraedro_model_sem_sim_com_FK_heur.obj
 0001:00020a80       c5_d_emlrt_marshallIn      0000000180021a80 f   c5_Tetraedro_model_sem_sim_com_FK_heur.obj
 0001:00020b70       c5_diag                    0000000180021b70 f   c5_Tetraedro_model_sem_sim_com_FK_heur.obj
 0001:00020e50       c5_inv                     0000000180021e50 f   c5_Tetraedro_model_sem_sim_com_FK_heur.obj
 0001:00021470       c5_inv3x3                  0000000180022470 f   c5_Tetraedro_model_sem_sim_com_FK_heur.obj
 0001:00022a10       c5_norm                    0000000180023a10 f   c5_Tetraedro_model_sem_sim_com_FK_heur.obj
 0001:00022d20       c5_eml_warning             0000000180023d20 f   c5_Tetraedro_model_sem_sim_com_FK_heur.obj
 0001:00022e50       c5_b_eml_warning           0000000180023e50 f   c5_Tetraedro_model_sem_sim_com_FK_heur.obj
 0001:00023040       c5_eml_scalar_eg           0000000180024040 f   c5_Tetraedro_model_sem_sim_com_FK_heur.obj
 0001:00023050       c5_b_eml_scalar_eg         0000000180024050 f   c5_Tetraedro_model_sem_sim_com_FK_heur.obj
 0001:00023060       c5_e_emlrt_marshallIn      0000000180024060 f   c5_Tetraedro_model_sem_sim_com_FK_heur.obj
 0001:000230d0       c5_f_emlrt_marshallIn      00000001800240d0 f   c5_Tetraedro_model_sem_sim_com_FK_heur.obj
 0001:000231d0       sf_opaque_get_sim_state_c5_Tetraedro_model_sem_sim_com_FK_heur 00000001800241d0 f   c5_Tetraedro_model_sem_sim_com_FK_heur.obj
 0001:000231f0       sf_opaque_set_sim_state_c5_Tetraedro_model_sem_sim_com_FK_heur 00000001800241f0 f   c5_Tetraedro_model_sem_sim_com_FK_heur.obj
 0001:00023220       sf_opaque_terminate_c5_Tetraedro_model_sem_sim_com_FK_heur 0000000180024220 f   c5_Tetraedro_model_sem_sim_com_FK_heur.obj
 0001:000232a0       finalize_c5_Tetraedro_model_sem_sim_com_FK_heur 00000001800242a0 f   c5_Tetraedro_model_sem_sim_com_FK_heur.obj
 0001:000232b0       sf_opaque_init_subchart_simstructs 00000001800242b0 f   c5_Tetraedro_model_sem_sim_com_FK_heur.obj
 0001:000232d0       initSimStructsc5_Tetraedro_model_sem_sim_com_FK_heur 00000001800242d0 f   c5_Tetraedro_model_sem_sim_com_FK_heur.obj
 0001:000232e0       mdlRTW_c5_Tetraedro_model_sem_sim_com_FK_heur 00000001800242e0 f   c5_Tetraedro_model_sem_sim_com_FK_heur.obj
 0001:00023af0       c6_info_helper             0000000180024af0 f   c6_Tetraedro_model_sem_sim_com_FK_heur.obj
 0001:00026a30       get_sim_state_c6_Tetraedro_model_sem_sim_com_FK_heur 0000000180027a30 f   c6_Tetraedro_model_sem_sim_com_FK_heur.obj
 0001:00026d40       sf_get_sim_state_info_c6_Tetraedro_model_sem_sim_com_FK_heur 0000000180027d40 f   c6_Tetraedro_model_sem_sim_com_FK_heur.obj
 0001:00026f20       set_sim_state_c6_Tetraedro_model_sem_sim_com_FK_heur 0000000180027f20 f   c6_Tetraedro_model_sem_sim_com_FK_heur.obj
 0001:000270f0       c6_update_debugger_state_c6_Tetraedro_model_sem_sim_com_FK_heur 00000001800280f0 f   c6_Tetraedro_model_sem_sim_com_FK_heur.obj
 0001:00027100       c6_emlrt_marshallIn        0000000180028100 f   c6_Tetraedro_model_sem_sim_com_FK_heur.obj
 0001:00027170       c6_b_emlrt_marshallIn      0000000180028170 f   c6_Tetraedro_model_sem_sim_com_FK_heur.obj
 0001:00027250       c6_f_emlrt_marshallIn      0000000180028250 f   c6_Tetraedro_model_sem_sim_com_FK_heur.obj
 0001:000272b0       c6_g_emlrt_marshallIn      00000001800282b0 f   c6_Tetraedro_model_sem_sim_com_FK_heur.obj
 0001:000273b0       mdlProcessParameters_c6_Tetraedro_model_sem_sim_com_FK_heur 00000001800283b0 f   c6_Tetraedro_model_sem_sim_com_FK_heur.obj
 0001:00027470       initialize_params_c6_Tetraedro_model_sem_sim_com_FK_heur 0000000180028470 f   c6_Tetraedro_model_sem_sim_com_FK_heur.obj
 0001:00027480       mdlSetWorkWidths_c6_Tetraedro_model_sem_sim_com_FK_heur 0000000180028480 f   c6_Tetraedro_model_sem_sim_com_FK_heur.obj
 0001:00027a60       sf_get_instance_specialization 0000000180028a60 f   c6_Tetraedro_model_sem_sim_com_FK_heur.obj
 0001:00027a70       mdlStart_c6_Tetraedro_model_sem_sim_com_FK_heur 0000000180028a70 f   c6_Tetraedro_model_sem_sim_com_FK_heur.obj
 0001:00027c70       init_dsm_address_info      0000000180028c70 f   c6_Tetraedro_model_sem_sim_com_FK_heur.obj
 0001:00027c80       chart_debug_initialization 0000000180028c80 f   c6_Tetraedro_model_sem_sim_com_FK_heur.obj
 0001:00028d40       init_script_number_translation 0000000180029d40 f   c6_Tetraedro_model_sem_sim_com_FK_heur.obj
 0001:00028d50       c6_sf_marshallOut          0000000180029d50 f   c6_Tetraedro_model_sem_sim_com_FK_heur.obj
 0001:00028f60       c6_sf_marshallIn           0000000180029f60 f   c6_Tetraedro_model_sem_sim_com_FK_heur.obj
 0001:00029090       c6_b_sf_marshallOut        000000018002a090 f   c6_Tetraedro_model_sem_sim_com_FK_heur.obj
 0001:00029140       c6_c_sf_marshallOut        000000018002a140 f   c6_Tetraedro_model_sem_sim_com_FK_heur.obj
 0001:00029270       sf_opaque_initialize_c6_Tetraedro_model_sem_sim_com_FK_heur 000000018002a270 f   c6_Tetraedro_model_sem_sim_com_FK_heur.obj
 0001:000292b0       initialize_c6_Tetraedro_model_sem_sim_com_FK_heur 000000018002a2b0 f   c6_Tetraedro_model_sem_sim_com_FK_heur.obj
 0001:00029300       sf_opaque_enable_c6_Tetraedro_model_sem_sim_com_FK_heur 000000018002a300 f   c6_Tetraedro_model_sem_sim_com_FK_heur.obj
 0001:00029320       enable_c6_Tetraedro_model_sem_sim_com_FK_heur 000000018002a320 f   c6_Tetraedro_model_sem_sim_com_FK_heur.obj
 0001:00029350       sf_opaque_disable_c6_Tetraedro_model_sem_sim_com_FK_heur 000000018002a350 f   c6_Tetraedro_model_sem_sim_com_FK_heur.obj
 0001:00029370       disable_c6_Tetraedro_model_sem_sim_com_FK_heur 000000018002a370 f   c6_Tetraedro_model_sem_sim_com_FK_heur.obj
 0001:000293a0       sf_opaque_gateway_c6_Tetraedro_model_sem_sim_com_FK_heur 000000018002a3a0 f   c6_Tetraedro_model_sem_sim_com_FK_heur.obj
 0001:000293c0       sf_c6_Tetraedro_model_sem_sim_com_FK_heur 000000018002a3c0 f   c6_Tetraedro_model_sem_sim_com_FK_heur.obj
 0001:00029920       c6_chartstep_c6_Tetraedro_model_sem_sim_com_FK_heur 000000018002a920 f   c6_Tetraedro_model_sem_sim_com_FK_heur.obj
 0001:0002c510       c6_b_sf_marshallIn         000000018002d510 f   c6_Tetraedro_model_sem_sim_com_FK_heur.obj
 0001:0002c5b0       c6_c_emlrt_marshallIn      000000018002d5b0 f   c6_Tetraedro_model_sem_sim_com_FK_heur.obj
 0001:0002c640       c6_c_sf_marshallIn         000000018002d640 f   c6_Tetraedro_model_sem_sim_com_FK_heur.obj
 0001:0002c720       c6_d_emlrt_marshallIn      000000018002d720 f   c6_Tetraedro_model_sem_sim_com_FK_heur.obj
 0001:0002c7f0       c6_norm                    000000018002d7f0 f   c6_Tetraedro_model_sem_sim_com_FK_heur.obj
 0001:0002c9f0       c6_cross                   000000018002d9f0 f   c6_Tetraedro_model_sem_sim_com_FK_heur.obj
 0001:0002cbf0       c6_eml_scalar_eg           000000018002dbf0 f   c6_Tetraedro_model_sem_sim_com_FK_heur.obj
 0001:0002cc00       c6_mpower                  000000018002dc00 f   c6_Tetraedro_model_sem_sim_com_FK_heur.obj
 0001:0002cc90       c6_b_eml_scalar_eg         000000018002dc90 f   c6_Tetraedro_model_sem_sim_com_FK_heur.obj
 0001:0002cca0       c6_c_eml_scalar_eg         000000018002dca0 f   c6_Tetraedro_model_sem_sim_com_FK_heur.obj
 0001:0002ccb0       sf_opaque_get_sim_state_c6_Tetraedro_model_sem_sim_com_FK_heur 000000018002dcb0 f   c6_Tetraedro_model_sem_sim_com_FK_heur.obj
 0001:0002ccd0       sf_opaque_set_sim_state_c6_Tetraedro_model_sem_sim_com_FK_heur 000000018002dcd0 f   c6_Tetraedro_model_sem_sim_com_FK_heur.obj
 0001:0002cd00       sf_opaque_terminate_c6_Tetraedro_model_sem_sim_com_FK_heur 000000018002dd00 f   c6_Tetraedro_model_sem_sim_com_FK_heur.obj
 0001:0002cd80       finalize_c6_Tetraedro_model_sem_sim_com_FK_heur 000000018002dd80 f   c6_Tetraedro_model_sem_sim_com_FK_heur.obj
 0001:0002cd90       sf_opaque_init_subchart_simstructs 000000018002dd90 f   c6_Tetraedro_model_sem_sim_com_FK_heur.obj
 0001:0002cdb0       initSimStructsc6_Tetraedro_model_sem_sim_com_FK_heur 000000018002ddb0 f   c6_Tetraedro_model_sem_sim_com_FK_heur.obj
 0001:0002cdc0       mdlRTW_c6_Tetraedro_model_sem_sim_com_FK_heur 000000018002ddc0 f   c6_Tetraedro_model_sem_sim_com_FK_heur.obj
 0001:0002d830       get_sim_state_c7_Tetraedro_model_sem_sim_com_FK_heur 000000018002e830 f   c7_Tetraedro_model_sem_sim_com_FK_heur.obj
 0001:0002dcb0       sf_get_sim_state_info_c7_Tetraedro_model_sem_sim_com_FK_heur 000000018002ecb0 f   c7_Tetraedro_model_sem_sim_com_FK_heur.obj
 0001:0002de90       set_sim_state_c7_Tetraedro_model_sem_sim_com_FK_heur 000000018002ee90 f   c7_Tetraedro_model_sem_sim_com_FK_heur.obj
 0001:0002e140       c7_update_debugger_state_c7_Tetraedro_model_sem_sim_com_FK_heur 000000018002f140 f   c7_Tetraedro_model_sem_sim_com_FK_heur.obj
 0001:0002e150       c7_emlrt_marshallIn        000000018002f150 f   c7_Tetraedro_model_sem_sim_com_FK_heur.obj
 0001:0002e1c0       c7_b_emlrt_marshallIn      000000018002f1c0 f   c7_Tetraedro_model_sem_sim_com_FK_heur.obj
 0001:0002e250       c7_c_emlrt_marshallIn      000000018002f250 f   c7_Tetraedro_model_sem_sim_com_FK_heur.obj
 0001:0002e2c0       c7_d_emlrt_marshallIn      000000018002f2c0 f   c7_Tetraedro_model_sem_sim_com_FK_heur.obj
 0001:0002e390       c7_e_emlrt_marshallIn      000000018002f390 f   c7_Tetraedro_model_sem_sim_com_FK_heur.obj
 0001:0002e400       c7_f_emlrt_marshallIn      000000018002f400 f   c7_Tetraedro_model_sem_sim_com_FK_heur.obj
 0001:0002e4d0       c7_h_emlrt_marshallIn      000000018002f4d0 f   c7_Tetraedro_model_sem_sim_com_FK_heur.obj
 0001:0002e530       c7_i_emlrt_marshallIn      000000018002f530 f   c7_Tetraedro_model_sem_sim_com_FK_heur.obj
 0001:0002e630       mdlProcessParameters_c7_Tetraedro_model_sem_sim_com_FK_heur 000000018002f630 f   c7_Tetraedro_model_sem_sim_com_FK_heur.obj
 0001:0002e6f0       initialize_params_c7_Tetraedro_model_sem_sim_com_FK_heur 000000018002f6f0 f   c7_Tetraedro_model_sem_sim_com_FK_heur.obj
 0001:0002e700       mdlSetWorkWidths_c7_Tetraedro_model_sem_sim_com_FK_heur 000000018002f700 f   c7_Tetraedro_model_sem_sim_com_FK_heur.obj
 0001:0002ebf0       sf_get_instance_specialization 000000018002fbf0 f   c7_Tetraedro_model_sem_sim_com_FK_heur.obj
 0001:0002ec00       mdlStart_c7_Tetraedro_model_sem_sim_com_FK_heur 000000018002fc00 f   c7_Tetraedro_model_sem_sim_com_FK_heur.obj
 0001:0002ee00       init_dsm_address_info      000000018002fe00 f   c7_Tetraedro_model_sem_sim_com_FK_heur.obj
 0001:0002ee10       chart_debug_initialization 000000018002fe10 f   c7_Tetraedro_model_sem_sim_com_FK_heur.obj
 0001:0002fa90       init_script_number_translation 0000000180030a90 f   c7_Tetraedro_model_sem_sim_com_FK_heur.obj
 0001:0002faa0       c7_sf_marshallOut          0000000180030aa0 f   c7_Tetraedro_model_sem_sim_com_FK_heur.obj
 0001:0002fb50       c7_sf_marshallIn           0000000180030b50 f   c7_Tetraedro_model_sem_sim_com_FK_heur.obj
 0001:0002fbf0       c7_b_sf_marshallOut        0000000180030bf0 f   c7_Tetraedro_model_sem_sim_com_FK_heur.obj
 0001:0002fd30       c7_b_sf_marshallIn         0000000180030d30 f   c7_Tetraedro_model_sem_sim_com_FK_heur.obj
 0001:0002fe10       c7_c_sf_marshallOut        0000000180030e10 f   c7_Tetraedro_model_sem_sim_com_FK_heur.obj
 0001:0002ff50       c7_c_sf_marshallIn         0000000180030f50 f   c7_Tetraedro_model_sem_sim_com_FK_heur.obj
 0001:00030030       c7_d_sf_marshallOut        0000000180031030 f   c7_Tetraedro_model_sem_sim_com_FK_heur.obj
 0001:00030190       sf_opaque_initialize_c7_Tetraedro_model_sem_sim_com_FK_heur 0000000180031190 f   c7_Tetraedro_model_sem_sim_com_FK_heur.obj
 0001:000301d0       initialize_c7_Tetraedro_model_sem_sim_com_FK_heur 00000001800311d0 f   c7_Tetraedro_model_sem_sim_com_FK_heur.obj
 0001:00030220       sf_opaque_enable_c7_Tetraedro_model_sem_sim_com_FK_heur 0000000180031220 f   c7_Tetraedro_model_sem_sim_com_FK_heur.obj
 0001:00030240       enable_c7_Tetraedro_model_sem_sim_com_FK_heur 0000000180031240 f   c7_Tetraedro_model_sem_sim_com_FK_heur.obj
 0001:00030270       sf_opaque_disable_c7_Tetraedro_model_sem_sim_com_FK_heur 0000000180031270 f   c7_Tetraedro_model_sem_sim_com_FK_heur.obj
 0001:00030290       disable_c7_Tetraedro_model_sem_sim_com_FK_heur 0000000180031290 f   c7_Tetraedro_model_sem_sim_com_FK_heur.obj
 0001:000302c0       sf_opaque_gateway_c7_Tetraedro_model_sem_sim_com_FK_heur 00000001800312c0 f   c7_Tetraedro_model_sem_sim_com_FK_heur.obj
 0001:000302e0       sf_c7_Tetraedro_model_sem_sim_com_FK_heur 00000001800312e0 f   c7_Tetraedro_model_sem_sim_com_FK_heur.obj
 0001:00031720       sf_opaque_get_sim_state_c7_Tetraedro_model_sem_sim_com_FK_heur 0000000180032720 f   c7_Tetraedro_model_sem_sim_com_FK_heur.obj
 0001:00031740       sf_opaque_set_sim_state_c7_Tetraedro_model_sem_sim_com_FK_heur 0000000180032740 f   c7_Tetraedro_model_sem_sim_com_FK_heur.obj
 0001:00031770       sf_opaque_terminate_c7_Tetraedro_model_sem_sim_com_FK_heur 0000000180032770 f   c7_Tetraedro_model_sem_sim_com_FK_heur.obj
 0001:000317f0       finalize_c7_Tetraedro_model_sem_sim_com_FK_heur 00000001800327f0 f   c7_Tetraedro_model_sem_sim_com_FK_heur.obj
 0001:00031800       sf_opaque_init_subchart_simstructs 0000000180032800 f   c7_Tetraedro_model_sem_sim_com_FK_heur.obj
 0001:00031820       initSimStructsc7_Tetraedro_model_sem_sim_com_FK_heur 0000000180032820 f   c7_Tetraedro_model_sem_sim_com_FK_heur.obj
 0001:00031830       mdlRTW_c7_Tetraedro_model_sem_sim_com_FK_heur 0000000180032830 f   c7_Tetraedro_model_sem_sim_com_FK_heur.obj
 0001:00031cf0       c8_info_helper             0000000180032cf0 f   c8_Tetraedro_model_sem_sim_com_FK_heur.obj
 0001:00032d20       get_sim_state_c8_Tetraedro_model_sem_sim_com_FK_heur 0000000180033d20 f   c8_Tetraedro_model_sem_sim_com_FK_heur.obj
 0001:00032ec0       sf_get_sim_state_info_c8_Tetraedro_model_sem_sim_com_FK_heur 0000000180033ec0 f   c8_Tetraedro_model_sem_sim_com_FK_heur.obj
 0001:000330a0       set_sim_state_c8_Tetraedro_model_sem_sim_com_FK_heur 00000001800340a0 f   c8_Tetraedro_model_sem_sim_com_FK_heur.obj
 0001:00033180       c8_update_debugger_state_c8_Tetraedro_model_sem_sim_com_FK_heur 0000000180034180 f   c8_Tetraedro_model_sem_sim_com_FK_heur.obj
 0001:00033190       c8_emlrt_marshallIn        0000000180034190 f   c8_Tetraedro_model_sem_sim_com_FK_heur.obj
 0001:00033200       c8_b_emlrt_marshallIn      0000000180034200 f   c8_Tetraedro_model_sem_sim_com_FK_heur.obj
 0001:00033290       c8_d_emlrt_marshallIn      0000000180034290 f   c8_Tetraedro_model_sem_sim_com_FK_heur.obj
 0001:000332f0       c8_e_emlrt_marshallIn      00000001800342f0 f   c8_Tetraedro_model_sem_sim_com_FK_heur.obj
 0001:000333f0       mdlProcessParameters_c8_Tetraedro_model_sem_sim_com_FK_heur 00000001800343f0 f   c8_Tetraedro_model_sem_sim_com_FK_heur.obj
 0001:000334b0       initialize_params_c8_Tetraedro_model_sem_sim_com_FK_heur 00000001800344b0 f   c8_Tetraedro_model_sem_sim_com_FK_heur.obj
 0001:000334c0       mdlSetWorkWidths_c8_Tetraedro_model_sem_sim_com_FK_heur 00000001800344c0 f   c8_Tetraedro_model_sem_sim_com_FK_heur.obj
 0001:000339b0       sf_get_instance_specialization 00000001800349b0 f   c8_Tetraedro_model_sem_sim_com_FK_heur.obj
 0001:000339c0       mdlStart_c8_Tetraedro_model_sem_sim_com_FK_heur 00000001800349c0 f   c8_Tetraedro_model_sem_sim_com_FK_heur.obj
 0001:00033bc0       init_dsm_address_info      0000000180034bc0 f   c8_Tetraedro_model_sem_sim_com_FK_heur.obj
 0001:00033bd0       chart_debug_initialization 0000000180034bd0 f   c8_Tetraedro_model_sem_sim_com_FK_heur.obj
 0001:000344e0       init_script_number_translation 00000001800354e0 f   c8_Tetraedro_model_sem_sim_com_FK_heur.obj
 0001:000344f0       c8_sf_marshallOut          00000001800354f0 f   c8_Tetraedro_model_sem_sim_com_FK_heur.obj
 0001:000345a0       c8_sf_marshallIn           00000001800355a0 f   c8_Tetraedro_model_sem_sim_com_FK_heur.obj
 0001:00034640       c8_b_sf_marshallOut        0000000180035640 f   c8_Tetraedro_model_sem_sim_com_FK_heur.obj
 0001:00034780       sf_opaque_initialize_c8_Tetraedro_model_sem_sim_com_FK_heur 0000000180035780 f   c8_Tetraedro_model_sem_sim_com_FK_heur.obj
 0001:000347c0       initialize_c8_Tetraedro_model_sem_sim_com_FK_heur 00000001800357c0 f   c8_Tetraedro_model_sem_sim_com_FK_heur.obj
 0001:00034810       sf_opaque_enable_c8_Tetraedro_model_sem_sim_com_FK_heur 0000000180035810 f   c8_Tetraedro_model_sem_sim_com_FK_heur.obj
 0001:00034830       enable_c8_Tetraedro_model_sem_sim_com_FK_heur 0000000180035830 f   c8_Tetraedro_model_sem_sim_com_FK_heur.obj
 0001:00034860       sf_opaque_disable_c8_Tetraedro_model_sem_sim_com_FK_heur 0000000180035860 f   c8_Tetraedro_model_sem_sim_com_FK_heur.obj
 0001:00034880       disable_c8_Tetraedro_model_sem_sim_com_FK_heur 0000000180035880 f   c8_Tetraedro_model_sem_sim_com_FK_heur.obj
 0001:000348b0       sf_opaque_gateway_c8_Tetraedro_model_sem_sim_com_FK_heur 00000001800358b0 f   c8_Tetraedro_model_sem_sim_com_FK_heur.obj
 0001:000348d0       sf_c8_Tetraedro_model_sem_sim_com_FK_heur 00000001800358d0 f   c8_Tetraedro_model_sem_sim_com_FK_heur.obj
 0001:00035300       c8_norm                    0000000180036300 f   c8_Tetraedro_model_sem_sim_com_FK_heur.obj
 0001:00035500       sf_opaque_get_sim_state_c8_Tetraedro_model_sem_sim_com_FK_heur 0000000180036500 f   c8_Tetraedro_model_sem_sim_com_FK_heur.obj
 0001:00035520       sf_opaque_set_sim_state_c8_Tetraedro_model_sem_sim_com_FK_heur 0000000180036520 f   c8_Tetraedro_model_sem_sim_com_FK_heur.obj
 0001:00035550       sf_opaque_terminate_c8_Tetraedro_model_sem_sim_com_FK_heur 0000000180036550 f   c8_Tetraedro_model_sem_sim_com_FK_heur.obj
 0001:000355d0       finalize_c8_Tetraedro_model_sem_sim_com_FK_heur 00000001800365d0 f   c8_Tetraedro_model_sem_sim_com_FK_heur.obj
 0001:000355e0       sf_opaque_init_subchart_simstructs 00000001800365e0 f   c8_Tetraedro_model_sem_sim_com_FK_heur.obj
 0001:00035600       initSimStructsc8_Tetraedro_model_sem_sim_com_FK_heur 0000000180036600 f   c8_Tetraedro_model_sem_sim_com_FK_heur.obj
 0001:00035610       mdlRTW_c8_Tetraedro_model_sem_sim_com_FK_heur 0000000180036610 f   c8_Tetraedro_model_sem_sim_com_FK_heur.obj
 0001:000363a0       get_sim_state_c9_Tetraedro_model_sem_sim_com_FK_heur 00000001800373a0 f   c9_Tetraedro_model_sem_sim_com_FK_heur.obj
 0001:00036610       sf_get_sim_state_info_c9_Tetraedro_model_sem_sim_com_FK_heur 0000000180037610 f   c9_Tetraedro_model_sem_sim_com_FK_heur.obj
 0001:000367f0       set_sim_state_c9_Tetraedro_model_sem_sim_com_FK_heur 00000001800377f0 f   c9_Tetraedro_model_sem_sim_com_FK_heur.obj
 0001:00036920       c9_update_debugger_state_c9_Tetraedro_model_sem_sim_com_FK_heur 0000000180037920 f   c9_Tetraedro_model_sem_sim_com_FK_heur.obj
 0001:00036930       c9_emlrt_marshallIn        0000000180037930 f   c9_Tetraedro_model_sem_sim_com_FK_heur.obj
 0001:000369a0       c9_b_emlrt_marshallIn      00000001800379a0 f   c9_Tetraedro_model_sem_sim_com_FK_heur.obj
 0001:00036a30       c9_d_emlrt_marshallIn      0000000180037a30 f   c9_Tetraedro_model_sem_sim_com_FK_heur.obj
 0001:00036a90       c9_e_emlrt_marshallIn      0000000180037a90 f   c9_Tetraedro_model_sem_sim_com_FK_heur.obj
 0001:00036b90       mdlProcessParameters_c9_Tetraedro_model_sem_sim_com_FK_heur 0000000180037b90 f   c9_Tetraedro_model_sem_sim_com_FK_heur.obj
 0001:00036c50       initialize_params_c9_Tetraedro_model_sem_sim_com_FK_heur 0000000180037c50 f   c9_Tetraedro_model_sem_sim_com_FK_heur.obj
 0001:00036c60       mdlSetWorkWidths_c9_Tetraedro_model_sem_sim_com_FK_heur 0000000180037c60 f   c9_Tetraedro_model_sem_sim_com_FK_heur.obj
 0001:00037180       sf_get_instance_specialization 0000000180038180 f   c9_Tetraedro_model_sem_sim_com_FK_heur.obj
 0001:00037190       mdlStart_c9_Tetraedro_model_sem_sim_com_FK_heur 0000000180038190 f   c9_Tetraedro_model_sem_sim_com_FK_heur.obj
 0001:00037390       init_dsm_address_info      0000000180038390 f   c9_Tetraedro_model_sem_sim_com_FK_heur.obj
 0001:000373a0       chart_debug_initialization 00000001800383a0 f   c9_Tetraedro_model_sem_sim_com_FK_heur.obj
 0001:00037f40       init_script_number_translation 0000000180038f40 f   c9_Tetraedro_model_sem_sim_com_FK_heur.obj
 0001:00037f50       c9_sf_marshallOut          0000000180038f50 f   c9_Tetraedro_model_sem_sim_com_FK_heur.obj
 0001:00038000       c9_sf_marshallIn           0000000180039000 f   c9_Tetraedro_model_sem_sim_com_FK_heur.obj
 0001:000380a0       sf_opaque_initialize_c9_Tetraedro_model_sem_sim_com_FK_heur 00000001800390a0 f   c9_Tetraedro_model_sem_sim_com_FK_heur.obj
 0001:000380e0       initialize_c9_Tetraedro_model_sem_sim_com_FK_heur 00000001800390e0 f   c9_Tetraedro_model_sem_sim_com_FK_heur.obj
 0001:00038130       sf_opaque_enable_c9_Tetraedro_model_sem_sim_com_FK_heur 0000000180039130 f   c9_Tetraedro_model_sem_sim_com_FK_heur.obj
 0001:00038150       enable_c9_Tetraedro_model_sem_sim_com_FK_heur 0000000180039150 f   c9_Tetraedro_model_sem_sim_com_FK_heur.obj
 0001:00038180       sf_opaque_disable_c9_Tetraedro_model_sem_sim_com_FK_heur 0000000180039180 f   c9_Tetraedro_model_sem_sim_com_FK_heur.obj
 0001:000381a0       disable_c9_Tetraedro_model_sem_sim_com_FK_heur 00000001800391a0 f   c9_Tetraedro_model_sem_sim_com_FK_heur.obj
 0001:000381d0       sf_opaque_gateway_c9_Tetraedro_model_sem_sim_com_FK_heur 00000001800391d0 f   c9_Tetraedro_model_sem_sim_com_FK_heur.obj
 0001:000381f0       sf_c9_Tetraedro_model_sem_sim_com_FK_heur 00000001800391f0 f   c9_Tetraedro_model_sem_sim_com_FK_heur.obj
 0001:00038e90       sf_opaque_get_sim_state_c9_Tetraedro_model_sem_sim_com_FK_heur 0000000180039e90 f   c9_Tetraedro_model_sem_sim_com_FK_heur.obj
 0001:00038eb0       sf_opaque_set_sim_state_c9_Tetraedro_model_sem_sim_com_FK_heur 0000000180039eb0 f   c9_Tetraedro_model_sem_sim_com_FK_heur.obj
 0001:00038ee0       sf_opaque_terminate_c9_Tetraedro_model_sem_sim_com_FK_heur 0000000180039ee0 f   c9_Tetraedro_model_sem_sim_com_FK_heur.obj
 0001:00038f60       finalize_c9_Tetraedro_model_sem_sim_com_FK_heur 0000000180039f60 f   c9_Tetraedro_model_sem_sim_com_FK_heur.obj
 0001:00038f70       sf_opaque_init_subchart_simstructs 0000000180039f70 f   c9_Tetraedro_model_sem_sim_com_FK_heur.obj
 0001:00038f90       initSimStructsc9_Tetraedro_model_sem_sim_com_FK_heur 0000000180039f90 f   c9_Tetraedro_model_sem_sim_com_FK_heur.obj
 0001:00038fa0       mdlRTW_c9_Tetraedro_model_sem_sim_com_FK_heur 0000000180039fa0 f   c9_Tetraedro_model_sem_sim_com_FK_heur.obj
 0001:00039620       get_sim_state_c10_Tetraedro_model_sem_sim_com_FK_heur 000000018003a620 f   c10_Tetraedro_model_sem_sim_com_FK_heur.obj
 0001:00039810       sf_get_sim_state_info_c10_Tetraedro_model_sem_sim_com_FK_heur 000000018003a810 f   c10_Tetraedro_model_sem_sim_com_FK_heur.obj
 0001:000399f0       set_sim_state_c10_Tetraedro_model_sem_sim_com_FK_heur 000000018003a9f0 f   c10_Tetraedro_model_sem_sim_com_FK_heur.obj
 0001:00039b00       c10_update_debugger_state_c10_Tetraedro_model_sem_sim_com_FK_heu 000000018003ab00 f   c10_Tetraedro_model_sem_sim_com_FK_heur.obj
 0001:00039b10       c10_emlrt_marshallIn       000000018003ab10 f   c10_Tetraedro_model_sem_sim_com_FK_heur.obj
 0001:00039b80       c10_b_emlrt_marshallIn     000000018003ab80 f   c10_Tetraedro_model_sem_sim_com_FK_heur.obj
 0001:00039c50       c10_e_emlrt_marshallIn     000000018003ac50 f   c10_Tetraedro_model_sem_sim_com_FK_heur.obj
 0001:00039cb0       c10_f_emlrt_marshallIn     000000018003acb0 f   c10_Tetraedro_model_sem_sim_com_FK_heur.obj
 0001:00039db0       mdlProcessParameters_c10_Tetraedro_model_sem_sim_com_FK_heur 000000018003adb0 f   c10_Tetraedro_model_sem_sim_com_FK_heur.obj
 0001:00039e70       initialize_params_c10_Tetraedro_model_sem_sim_com_FK_heur 000000018003ae70 f   c10_Tetraedro_model_sem_sim_com_FK_heur.obj
 0001:00039e80       mdlSetWorkWidths_c10_Tetraedro_model_sem_sim_com_FK_heur 000000018003ae80 f   c10_Tetraedro_model_sem_sim_com_FK_heur.obj
 0001:0003a370       sf_get_instance_specialization 000000018003b370 f   c10_Tetraedro_model_sem_sim_com_FK_heur.obj
 0001:0003a380       mdlStart_c10_Tetraedro_model_sem_sim_com_FK_heur 000000018003b380 f   c10_Tetraedro_model_sem_sim_com_FK_heur.obj
 0001:0003a580       init_dsm_address_info      000000018003b580 f   c10_Tetraedro_model_sem_sim_com_FK_heur.obj
 0001:0003a590       chart_debug_initialization 000000018003b590 f   c10_Tetraedro_model_sem_sim_com_FK_heur.obj
 0001:0003ae20       init_script_number_translation 000000018003be20 f   c10_Tetraedro_model_sem_sim_com_FK_heur.obj
 0001:0003ae30       c10_sf_marshallOut         000000018003be30 f   c10_Tetraedro_model_sem_sim_com_FK_heur.obj
 0001:0003af90       c10_sf_marshallIn          000000018003bf90 f   c10_Tetraedro_model_sem_sim_com_FK_heur.obj
 0001:0003b070       sf_opaque_initialize_c10_Tetraedro_model_sem_sim_com_FK_heur 000000018003c070 f   c10_Tetraedro_model_sem_sim_com_FK_heur.obj
 0001:0003b0b0       initialize_c10_Tetraedro_model_sem_sim_com_FK_heur 000000018003c0b0 f   c10_Tetraedro_model_sem_sim_com_FK_heur.obj
 0001:0003b100       sf_opaque_enable_c10_Tetraedro_model_sem_sim_com_FK_heur 000000018003c100 f   c10_Tetraedro_model_sem_sim_com_FK_heur.obj
 0001:0003b120       enable_c10_Tetraedro_model_sem_sim_com_FK_heur 000000018003c120 f   c10_Tetraedro_model_sem_sim_com_FK_heur.obj
 0001:0003b150       sf_opaque_disable_c10_Tetraedro_model_sem_sim_com_FK_heur 000000018003c150 f   c10_Tetraedro_model_sem_sim_com_FK_heur.obj
 0001:0003b170       disable_c10_Tetraedro_model_sem_sim_com_FK_heur 000000018003c170 f   c10_Tetraedro_model_sem_sim_com_FK_heur.obj
 0001:0003b1a0       sf_opaque_gateway_c10_Tetraedro_model_sem_sim_com_FK_heur 000000018003c1a0 f   c10_Tetraedro_model_sem_sim_com_FK_heur.obj
 0001:0003b1c0       sf_c10_Tetraedro_model_sem_sim_com_FK_heur 000000018003c1c0 f   c10_Tetraedro_model_sem_sim_com_FK_heur.obj
 0001:0003ba90       c10_b_sf_marshallOut       000000018003ca90 f   c10_Tetraedro_model_sem_sim_com_FK_heur.obj
 0001:0003bb40       c10_b_sf_marshallIn        000000018003cb40 f   c10_Tetraedro_model_sem_sim_com_FK_heur.obj
 0001:0003bbe0       c10_c_emlrt_marshallIn     000000018003cbe0 f   c10_Tetraedro_model_sem_sim_com_FK_heur.obj
 0001:0003bc70       sf_opaque_get_sim_state_c10_Tetraedro_model_sem_sim_com_FK_heur 000000018003cc70 f   c10_Tetraedro_model_sem_sim_com_FK_heur.obj
 0001:0003bc90       sf_opaque_set_sim_state_c10_Tetraedro_model_sem_sim_com_FK_heur 000000018003cc90 f   c10_Tetraedro_model_sem_sim_com_FK_heur.obj
 0001:0003bcc0       sf_opaque_terminate_c10_Tetraedro_model_sem_sim_com_FK_heur 000000018003ccc0 f   c10_Tetraedro_model_sem_sim_com_FK_heur.obj
 0001:0003bd40       finalize_c10_Tetraedro_model_sem_sim_com_FK_heur 000000018003cd40 f   c10_Tetraedro_model_sem_sim_com_FK_heur.obj
 0001:0003bd50       sf_opaque_init_subchart_simstructs 000000018003cd50 f   c10_Tetraedro_model_sem_sim_com_FK_heur.obj
 0001:0003bd70       initSimStructsc10_Tetraedro_model_sem_sim_com_FK_heur 000000018003cd70 f   c10_Tetraedro_model_sem_sim_com_FK_heur.obj
 0001:0003bd80       mdlRTW_c10_Tetraedro_model_sem_sim_com_FK_heur 000000018003cd80 f   c10_Tetraedro_model_sem_sim_com_FK_heur.obj
 0001:0003c220       c13_info_helper            000000018003d220 f   c13_Tetraedro_model_sem_sim_com_FK_heur.obj
 0001:0003ddf0       get_sim_state_c13_Tetraedro_model_sem_sim_com_FK_heur 000000018003edf0 f   c13_Tetraedro_model_sem_sim_com_FK_heur.obj
 0001:0003dfc0       sf_get_sim_state_info_c13_Tetraedro_model_sem_sim_com_FK_heur 000000018003efc0 f   c13_Tetraedro_model_sem_sim_com_FK_heur.obj
 0001:0003e1a0       set_sim_state_c13_Tetraedro_model_sem_sim_com_FK_heur 000000018003f1a0 f   c13_Tetraedro_model_sem_sim_com_FK_heur.obj
 0001:0003e2b0       c13_update_debugger_state_c13_Tetraedro_model_sem_sim_com_FK_heu 000000018003f2b0 f   c13_Tetraedro_model_sem_sim_com_FK_heur.obj
 0001:0003e2c0       c13_emlrt_marshallIn       000000018003f2c0 f   c13_Tetraedro_model_sem_sim_com_FK_heur.obj
 0001:0003e330       c13_b_emlrt_marshallIn     000000018003f330 f   c13_Tetraedro_model_sem_sim_com_FK_heur.obj
 0001:0003e400       c13_h_emlrt_marshallIn     000000018003f400 f   c13_Tetraedro_model_sem_sim_com_FK_heur.obj
 0001:0003e460       c13_i_emlrt_marshallIn     000000018003f460 f   c13_Tetraedro_model_sem_sim_com_FK_heur.obj
 0001:0003e560       mdlProcessParameters_c13_Tetraedro_model_sem_sim_com_FK_heur 000000018003f560 f   c13_Tetraedro_model_sem_sim_com_FK_heur.obj
 0001:0003e620       initialize_params_c13_Tetraedro_model_sem_sim_com_FK_heur 000000018003f620 f   c13_Tetraedro_model_sem_sim_com_FK_heur.obj
 0001:0003e630       mdlSetWorkWidths_c13_Tetraedro_model_sem_sim_com_FK_heur 000000018003f630 f   c13_Tetraedro_model_sem_sim_com_FK_heur.obj
 0001:0003eb80       sf_get_instance_specialization 000000018003fb80 f   c13_Tetraedro_model_sem_sim_com_FK_heur.obj
 0001:0003eb90       mdlStart_c13_Tetraedro_model_sem_sim_com_FK_heur 000000018003fb90 f   c13_Tetraedro_model_sem_sim_com_FK_heur.obj
 0001:0003ed90       init_dsm_address_info      000000018003fd90 f   c13_Tetraedro_model_sem_sim_com_FK_heur.obj
 0001:0003eda0       chart_debug_initialization 000000018003fda0 f   c13_Tetraedro_model_sem_sim_com_FK_heur.obj
 0001:0003f8a0       init_script_number_translation 00000001800408a0 f   c13_Tetraedro_model_sem_sim_com_FK_heur.obj
 0001:0003f8b0       c13_sf_marshallOut         00000001800408b0 f   c13_Tetraedro_model_sem_sim_com_FK_heur.obj
 0001:0003f9e0       c13_sf_marshallIn          00000001800409e0 f   c13_Tetraedro_model_sem_sim_com_FK_heur.obj
 0001:0003fac0       sf_opaque_initialize_c13_Tetraedro_model_sem_sim_com_FK_heur 0000000180040ac0 f   c13_Tetraedro_model_sem_sim_com_FK_heur.obj
 0001:0003fb00       initialize_c13_Tetraedro_model_sem_sim_com_FK_heur 0000000180040b00 f   c13_Tetraedro_model_sem_sim_com_FK_heur.obj
 0001:0003fb50       sf_opaque_enable_c13_Tetraedro_model_sem_sim_com_FK_heur 0000000180040b50 f   c13_Tetraedro_model_sem_sim_com_FK_heur.obj
 0001:0003fb70       enable_c13_Tetraedro_model_sem_sim_com_FK_heur 0000000180040b70 f   c13_Tetraedro_model_sem_sim_com_FK_heur.obj
 0001:0003fba0       sf_opaque_disable_c13_Tetraedro_model_sem_sim_com_FK_heur 0000000180040ba0 f   c13_Tetraedro_model_sem_sim_com_FK_heur.obj
 0001:0003fbc0       disable_c13_Tetraedro_model_sem_sim_com_FK_heur 0000000180040bc0 f   c13_Tetraedro_model_sem_sim_com_FK_heur.obj
 0001:0003fbf0       sf_opaque_gateway_c13_Tetraedro_model_sem_sim_com_FK_heur 0000000180040bf0 f   c13_Tetraedro_model_sem_sim_com_FK_heur.obj
 0001:0003fc10       sf_c13_Tetraedro_model_sem_sim_com_FK_heur 0000000180040c10 f   c13_Tetraedro_model_sem_sim_com_FK_heur.obj
 0001:0003ff80       c13_chartstep_c13_Tetraedro_model_sem_sim_com_FK_heur 0000000180040f80 f   c13_Tetraedro_model_sem_sim_com_FK_heur.obj
 0001:00041280       c13_b_sf_marshallOut       0000000180042280 f   c13_Tetraedro_model_sem_sim_com_FK_heur.obj
 0001:00041330       c13_b_sf_marshallIn        0000000180042330 f   c13_Tetraedro_model_sem_sim_com_FK_heur.obj
 0001:000413d0       c13_c_emlrt_marshallIn     00000001800423d0 f   c13_Tetraedro_model_sem_sim_com_FK_heur.obj
 0001:00041460       c13_c_sf_marshallOut       0000000180042460 f   c13_Tetraedro_model_sem_sim_com_FK_heur.obj
 0001:00041690       c13_c_sf_marshallIn        0000000180042690 f   c13_Tetraedro_model_sem_sim_com_FK_heur.obj
 0001:00041800       c13_d_emlrt_marshallIn     0000000180042800 f   c13_Tetraedro_model_sem_sim_com_FK_heur.obj
 0001:000418e0       c13_inv3x3                 00000001800428e0 f   c13_Tetraedro_model_sem_sim_com_FK_heur.obj
 0001:00042e80       c13_norm                   0000000180043e80 f   c13_Tetraedro_model_sem_sim_com_FK_heur.obj
 0001:000431a0       c13_eml_warning            00000001800441a0 f   c13_Tetraedro_model_sem_sim_com_FK_heur.obj
 0001:000432d0       c13_b_eml_warning          00000001800442d0 f   c13_Tetraedro_model_sem_sim_com_FK_heur.obj
 0001:000434e0       c13_eml_scalar_eg          00000001800444e0 f   c13_Tetraedro_model_sem_sim_com_FK_heur.obj
 0001:000434f0       c13_e_emlrt_marshallIn     00000001800444f0 f   c13_Tetraedro_model_sem_sim_com_FK_heur.obj
 0001:00043560       c13_f_emlrt_marshallIn     0000000180044560 f   c13_Tetraedro_model_sem_sim_com_FK_heur.obj
 0001:00043660       sf_opaque_get_sim_state_c13_Tetraedro_model_sem_sim_com_FK_heur 0000000180044660 f   c13_Tetraedro_model_sem_sim_com_FK_heur.obj
 0001:00043680       sf_opaque_set_sim_state_c13_Tetraedro_model_sem_sim_com_FK_heur 0000000180044680 f   c13_Tetraedro_model_sem_sim_com_FK_heur.obj
 0001:000436b0       sf_opaque_terminate_c13_Tetraedro_model_sem_sim_com_FK_heur 00000001800446b0 f   c13_Tetraedro_model_sem_sim_com_FK_heur.obj
 0001:00043730       finalize_c13_Tetraedro_model_sem_sim_com_FK_heur 0000000180044730 f   c13_Tetraedro_model_sem_sim_com_FK_heur.obj
 0001:00043740       sf_opaque_init_subchart_simstructs 0000000180044740 f   c13_Tetraedro_model_sem_sim_com_FK_heur.obj
 0001:00043760       initSimStructsc13_Tetraedro_model_sem_sim_com_FK_heur 0000000180044760 f   c13_Tetraedro_model_sem_sim_com_FK_heur.obj
 0001:00043770       mdlRTW_c13_Tetraedro_model_sem_sim_com_FK_heur 0000000180044770 f   c13_Tetraedro_model_sem_sim_com_FK_heur.obj
 0001:00043df0       get_sim_state_c14_Tetraedro_model_sem_sim_com_FK_heur 0000000180044df0 f   c14_Tetraedro_model_sem_sim_com_FK_heur.obj
 0001:00043fc0       sf_get_sim_state_info_c14_Tetraedro_model_sem_sim_com_FK_heur 0000000180044fc0 f   c14_Tetraedro_model_sem_sim_com_FK_heur.obj
 0001:000441a0       set_sim_state_c14_Tetraedro_model_sem_sim_com_FK_heur 00000001800451a0 f   c14_Tetraedro_model_sem_sim_com_FK_heur.obj
 0001:000442d0       c14_update_debugger_state_c14_Tetraedro_model_sem_sim_com_FK_heu 00000001800452d0 f   c14_Tetraedro_model_sem_sim_com_FK_heur.obj
 0001:000442e0       c14_emlrt_marshallIn       00000001800452e0 f   c14_Tetraedro_model_sem_sim_com_FK_heur.obj
 0001:00044350       c14_b_emlrt_marshallIn     0000000180045350 f   c14_Tetraedro_model_sem_sim_com_FK_heur.obj
 0001:00044430       c14_e_emlrt_marshallIn     0000000180045430 f   c14_Tetraedro_model_sem_sim_com_FK_heur.obj
 0001:00044490       c14_f_emlrt_marshallIn     0000000180045490 f   c14_Tetraedro_model_sem_sim_com_FK_heur.obj
 0001:00044590       mdlProcessParameters_c14_Tetraedro_model_sem_sim_com_FK_heur 0000000180045590 f   c14_Tetraedro_model_sem_sim_com_FK_heur.obj
 0001:00044650       initialize_params_c14_Tetraedro_model_sem_sim_com_FK_heur 0000000180045650 f   c14_Tetraedro_model_sem_sim_com_FK_heur.obj
 0001:00044660       mdlSetWorkWidths_c14_Tetraedro_model_sem_sim_com_FK_heur 0000000180045660 f   c14_Tetraedro_model_sem_sim_com_FK_heur.obj
 0001:00044b50       sf_get_instance_specialization 0000000180045b50 f   c14_Tetraedro_model_sem_sim_com_FK_heur.obj
 0001:00044b60       mdlStart_c14_Tetraedro_model_sem_sim_com_FK_heur 0000000180045b60 f   c14_Tetraedro_model_sem_sim_com_FK_heur.obj
 0001:00044d60       init_dsm_address_info      0000000180045d60 f   c14_Tetraedro_model_sem_sim_com_FK_heur.obj
 0001:00044d70       chart_debug_initialization 0000000180045d70 f   c14_Tetraedro_model_sem_sim_com_FK_heur.obj
 0001:00045600       init_script_number_translation 0000000180046600 f   c14_Tetraedro_model_sem_sim_com_FK_heur.obj
 0001:00045610       c14_sf_marshallOut         0000000180046610 f   c14_Tetraedro_model_sem_sim_com_FK_heur.obj
 0001:00045770       c14_sf_marshallIn          0000000180046770 f   c14_Tetraedro_model_sem_sim_com_FK_heur.obj
 0001:00045860       sf_opaque_initialize_c14_Tetraedro_model_sem_sim_com_FK_heur 0000000180046860 f   c14_Tetraedro_model_sem_sim_com_FK_heur.obj
 0001:000458a0       initialize_c14_Tetraedro_model_sem_sim_com_FK_heur 00000001800468a0 f   c14_Tetraedro_model_sem_sim_com_FK_heur.obj
 0001:000458f0       sf_opaque_enable_c14_Tetraedro_model_sem_sim_com_FK_heur 00000001800468f0 f   c14_Tetraedro_model_sem_sim_com_FK_heur.obj
 0001:00045910       enable_c14_Tetraedro_model_sem_sim_com_FK_heur 0000000180046910 f   c14_Tetraedro_model_sem_sim_com_FK_heur.obj
 0001:00045940       sf_opaque_disable_c14_Tetraedro_model_sem_sim_com_FK_heur 0000000180046940 f   c14_Tetraedro_model_sem_sim_com_FK_heur.obj
 0001:00045960       disable_c14_Tetraedro_model_sem_sim_com_FK_heur 0000000180046960 f   c14_Tetraedro_model_sem_sim_com_FK_heur.obj
 0001:00045990       sf_opaque_gateway_c14_Tetraedro_model_sem_sim_com_FK_heur 0000000180046990 f   c14_Tetraedro_model_sem_sim_com_FK_heur.obj
 0001:000459b0       sf_c14_Tetraedro_model_sem_sim_com_FK_heur 00000001800469b0 f   c14_Tetraedro_model_sem_sim_com_FK_heur.obj
 0001:00046320       c14_b_sf_marshallOut       0000000180047320 f   c14_Tetraedro_model_sem_sim_com_FK_heur.obj
 0001:000463d0       c14_b_sf_marshallIn        00000001800473d0 f   c14_Tetraedro_model_sem_sim_com_FK_heur.obj
 0001:00046470       c14_c_emlrt_marshallIn     0000000180047470 f   c14_Tetraedro_model_sem_sim_com_FK_heur.obj
 0001:00046500       sf_opaque_get_sim_state_c14_Tetraedro_model_sem_sim_com_FK_heur 0000000180047500 f   c14_Tetraedro_model_sem_sim_com_FK_heur.obj
 0001:00046520       sf_opaque_set_sim_state_c14_Tetraedro_model_sem_sim_com_FK_heur 0000000180047520 f   c14_Tetraedro_model_sem_sim_com_FK_heur.obj
 0001:00046550       sf_opaque_terminate_c14_Tetraedro_model_sem_sim_com_FK_heur 0000000180047550 f   c14_Tetraedro_model_sem_sim_com_FK_heur.obj
 0001:000465d0       finalize_c14_Tetraedro_model_sem_sim_com_FK_heur 00000001800475d0 f   c14_Tetraedro_model_sem_sim_com_FK_heur.obj
 0001:000465e0       sf_opaque_init_subchart_simstructs 00000001800475e0 f   c14_Tetraedro_model_sem_sim_com_FK_heur.obj
 0001:00046600       initSimStructsc14_Tetraedro_model_sem_sim_com_FK_heur 0000000180047600 f   c14_Tetraedro_model_sem_sim_com_FK_heur.obj
 0001:00046610       mdlRTW_c14_Tetraedro_model_sem_sim_com_FK_heur 0000000180047610 f   c14_Tetraedro_model_sem_sim_com_FK_heur.obj
 0001:00046de0       get_sim_state_c15_Tetraedro_model_sem_sim_com_FK_heur 0000000180047de0 f   c15_Tetraedro_model_sem_sim_com_FK_heur.obj
 0001:00047090       sf_get_sim_state_info_c15_Tetraedro_model_sem_sim_com_FK_heur 0000000180048090 f   c15_Tetraedro_model_sem_sim_com_FK_heur.obj
 0001:00047270       set_sim_state_c15_Tetraedro_model_sem_sim_com_FK_heur 0000000180048270 f   c15_Tetraedro_model_sem_sim_com_FK_heur.obj
 0001:00047430       c15_update_debugger_state_c15_Tetraedro_model_sem_sim_com_FK_heu 0000000180048430 f   c15_Tetraedro_model_sem_sim_com_FK_heur.obj
 0001:00047440       c15_emlrt_marshallIn       0000000180048440 f   c15_Tetraedro_model_sem_sim_com_FK_heur.obj
 0001:000474b0       c15_b_emlrt_marshallIn     00000001800484b0 f   c15_Tetraedro_model_sem_sim_com_FK_heur.obj
 0001:00047580       c15_c_emlrt_marshallIn     0000000180048580 f   c15_Tetraedro_model_sem_sim_com_FK_heur.obj
 0001:000475f0       c15_d_emlrt_marshallIn     00000001800485f0 f   c15_Tetraedro_model_sem_sim_com_FK_heur.obj
 0001:000476c0       c15_g_emlrt_marshallIn     00000001800486c0 f   c15_Tetraedro_model_sem_sim_com_FK_heur.obj
 0001:00047720       c15_h_emlrt_marshallIn     0000000180048720 f   c15_Tetraedro_model_sem_sim_com_FK_heur.obj
 0001:00047820       mdlProcessParameters_c15_Tetraedro_model_sem_sim_com_FK_heur 0000000180048820 f   c15_Tetraedro_model_sem_sim_com_FK_heur.obj
 0001:000478e0       initialize_params_c15_Tetraedro_model_sem_sim_com_FK_heur 00000001800488e0 f   c15_Tetraedro_model_sem_sim_com_FK_heur.obj
 0001:000478f0       mdlSetWorkWidths_c15_Tetraedro_model_sem_sim_com_FK_heur 00000001800488f0 f   c15_Tetraedro_model_sem_sim_com_FK_heur.obj
 0001:00047de0       sf_get_instance_specialization 0000000180048de0 f   c15_Tetraedro_model_sem_sim_com_FK_heur.obj
 0001:00047df0       mdlStart_c15_Tetraedro_model_sem_sim_com_FK_heur 0000000180048df0 f   c15_Tetraedro_model_sem_sim_com_FK_heur.obj
 0001:00047ff0       init_dsm_address_info      0000000180048ff0 f   c15_Tetraedro_model_sem_sim_com_FK_heur.obj
 0001:00048000       chart_debug_initialization 0000000180049000 f   c15_Tetraedro_model_sem_sim_com_FK_heur.obj
 0001:000489a0       init_script_number_translation 00000001800499a0 f   c15_Tetraedro_model_sem_sim_com_FK_heur.obj
 0001:000489b0       c15_sf_marshallOut         00000001800499b0 f   c15_Tetraedro_model_sem_sim_com_FK_heur.obj
 0001:00048af0       c15_sf_marshallIn          0000000180049af0 f   c15_Tetraedro_model_sem_sim_com_FK_heur.obj
 0001:00048bd0       c15_b_sf_marshallOut       0000000180049bd0 f   c15_Tetraedro_model_sem_sim_com_FK_heur.obj
 0001:00048d20       c15_b_sf_marshallIn        0000000180049d20 f   c15_Tetraedro_model_sem_sim_com_FK_heur.obj
 0001:00048e00       c15_c_sf_marshallOut       0000000180049e00 f   c15_Tetraedro_model_sem_sim_com_FK_heur.obj
 0001:00048f60       sf_opaque_initialize_c15_Tetraedro_model_sem_sim_com_FK_heur 0000000180049f60 f   c15_Tetraedro_model_sem_sim_com_FK_heur.obj
 0001:00048fa0       initialize_c15_Tetraedro_model_sem_sim_com_FK_heur 0000000180049fa0 f   c15_Tetraedro_model_sem_sim_com_FK_heur.obj
 0001:00048ff0       sf_opaque_enable_c15_Tetraedro_model_sem_sim_com_FK_heur 0000000180049ff0 f   c15_Tetraedro_model_sem_sim_com_FK_heur.obj
 0001:00049010       enable_c15_Tetraedro_model_sem_sim_com_FK_heur 000000018004a010 f   c15_Tetraedro_model_sem_sim_com_FK_heur.obj
 0001:00049040       sf_opaque_disable_c15_Tetraedro_model_sem_sim_com_FK_heur 000000018004a040 f   c15_Tetraedro_model_sem_sim_com_FK_heur.obj
 0001:00049060       disable_c15_Tetraedro_model_sem_sim_com_FK_heur 000000018004a060 f   c15_Tetraedro_model_sem_sim_com_FK_heur.obj
 0001:00049090       sf_opaque_gateway_c15_Tetraedro_model_sem_sim_com_FK_heur 000000018004a090 f   c15_Tetraedro_model_sem_sim_com_FK_heur.obj
 0001:000490b0       sf_c15_Tetraedro_model_sem_sim_com_FK_heur 000000018004a0b0 f   c15_Tetraedro_model_sem_sim_com_FK_heur.obj
 0001:000498f0       c15_d_sf_marshallOut       000000018004a8f0 f   c15_Tetraedro_model_sem_sim_com_FK_heur.obj
 0001:000499a0       c15_c_sf_marshallIn        000000018004a9a0 f   c15_Tetraedro_model_sem_sim_com_FK_heur.obj
 0001:00049a40       c15_e_emlrt_marshallIn     000000018004aa40 f   c15_Tetraedro_model_sem_sim_com_FK_heur.obj
 0001:00049ad0       sf_opaque_get_sim_state_c15_Tetraedro_model_sem_sim_com_FK_heur 000000018004aad0 f   c15_Tetraedro_model_sem_sim_com_FK_heur.obj
 0001:00049af0       sf_opaque_set_sim_state_c15_Tetraedro_model_sem_sim_com_FK_heur 000000018004aaf0 f   c15_Tetraedro_model_sem_sim_com_FK_heur.obj
 0001:00049b20       sf_opaque_terminate_c15_Tetraedro_model_sem_sim_com_FK_heur 000000018004ab20 f   c15_Tetraedro_model_sem_sim_com_FK_heur.obj
 0001:00049ba0       finalize_c15_Tetraedro_model_sem_sim_com_FK_heur 000000018004aba0 f   c15_Tetraedro_model_sem_sim_com_FK_heur.obj
 0001:00049bb0       sf_opaque_init_subchart_simstructs 000000018004abb0 f   c15_Tetraedro_model_sem_sim_com_FK_heur.obj
 0001:00049bd0       initSimStructsc15_Tetraedro_model_sem_sim_com_FK_heur 000000018004abd0 f   c15_Tetraedro_model_sem_sim_com_FK_heur.obj
 0001:00049be0       mdlRTW_c15_Tetraedro_model_sem_sim_com_FK_heur 000000018004abe0 f   c15_Tetraedro_model_sem_sim_com_FK_heur.obj
 0001:0004a080       c16_info_helper            000000018004b080 f   c16_Tetraedro_model_sem_sim_com_FK_heur.obj
 0001:0004b4f0       get_sim_state_c16_Tetraedro_model_sem_sim_com_FK_heur 000000018004c4f0 f   c16_Tetraedro_model_sem_sim_com_FK_heur.obj
 0001:0004b700       sf_get_sim_state_info_c16_Tetraedro_model_sem_sim_com_FK_heur 000000018004c700 f   c16_Tetraedro_model_sem_sim_com_FK_heur.obj
 0001:0004b8e0       set_sim_state_c16_Tetraedro_model_sem_sim_com_FK_heur 000000018004c8e0 f   c16_Tetraedro_model_sem_sim_com_FK_heur.obj
 0001:0004b9f0       c16_update_debugger_state_c16_Tetraedro_model_sem_sim_com_FK_heu 000000018004c9f0 f   c16_Tetraedro_model_sem_sim_com_FK_heur.obj
 0001:0004ba00       c16_emlrt_marshallIn       000000018004ca00 f   c16_Tetraedro_model_sem_sim_com_FK_heur.obj
 0001:0004ba70       c16_b_emlrt_marshallIn     000000018004ca70 f   c16_Tetraedro_model_sem_sim_com_FK_heur.obj
 0001:0004bb60       c16_f_emlrt_marshallIn     000000018004cb60 f   c16_Tetraedro_model_sem_sim_com_FK_heur.obj
 0001:0004bbc0       c16_g_emlrt_marshallIn     000000018004cbc0 f   c16_Tetraedro_model_sem_sim_com_FK_heur.obj
 0001:0004bcc0       mdlProcessParameters_c16_Tetraedro_model_sem_sim_com_FK_heur 000000018004ccc0 f   c16_Tetraedro_model_sem_sim_com_FK_heur.obj
 0001:0004bd80       initialize_params_c16_Tetraedro_model_sem_sim_com_FK_heur 000000018004cd80 f   c16_Tetraedro_model_sem_sim_com_FK_heur.obj
 0001:0004bd90       mdlSetWorkWidths_c16_Tetraedro_model_sem_sim_com_FK_heur 000000018004cd90 f   c16_Tetraedro_model_sem_sim_com_FK_heur.obj
 0001:0004c280       sf_get_instance_specialization 000000018004d280 f   c16_Tetraedro_model_sem_sim_com_FK_heur.obj
 0001:0004c290       mdlStart_c16_Tetraedro_model_sem_sim_com_FK_heur 000000018004d290 f   c16_Tetraedro_model_sem_sim_com_FK_heur.obj
 0001:0004c490       init_dsm_address_info      000000018004d490 f   c16_Tetraedro_model_sem_sim_com_FK_heur.obj
 0001:0004c4a0       chart_debug_initialization 000000018004d4a0 f   c16_Tetraedro_model_sem_sim_com_FK_heur.obj
 0001:0004ccd0       init_script_number_translation 000000018004dcd0 f   c16_Tetraedro_model_sem_sim_com_FK_heur.obj
 0001:0004cce0       c16_sf_marshallOut         000000018004dce0 f   c16_Tetraedro_model_sem_sim_com_FK_heur.obj
 0001:0004ce20       c16_sf_marshallIn          000000018004de20 f   c16_Tetraedro_model_sem_sim_com_FK_heur.obj
 0001:0004cf00       c16_b_sf_marshallOut       000000018004df00 f   c16_Tetraedro_model_sem_sim_com_FK_heur.obj
 0001:0004d030       sf_opaque_initialize_c16_Tetraedro_model_sem_sim_com_FK_heur 000000018004e030 f   c16_Tetraedro_model_sem_sim_com_FK_heur.obj
 0001:0004d070       initialize_c16_Tetraedro_model_sem_sim_com_FK_heur 000000018004e070 f   c16_Tetraedro_model_sem_sim_com_FK_heur.obj
 0001:0004d0c0       sf_opaque_enable_c16_Tetraedro_model_sem_sim_com_FK_heur 000000018004e0c0 f   c16_Tetraedro_model_sem_sim_com_FK_heur.obj
 0001:0004d0e0       enable_c16_Tetraedro_model_sem_sim_com_FK_heur 000000018004e0e0 f   c16_Tetraedro_model_sem_sim_com_FK_heur.obj
 0001:0004d110       sf_opaque_disable_c16_Tetraedro_model_sem_sim_com_FK_heur 000000018004e110 f   c16_Tetraedro_model_sem_sim_com_FK_heur.obj
 0001:0004d130       disable_c16_Tetraedro_model_sem_sim_com_FK_heur 000000018004e130 f   c16_Tetraedro_model_sem_sim_com_FK_heur.obj
 0001:0004d160       sf_opaque_gateway_c16_Tetraedro_model_sem_sim_com_FK_heur 000000018004e160 f   c16_Tetraedro_model_sem_sim_com_FK_heur.obj
 0001:0004d180       sf_c16_Tetraedro_model_sem_sim_com_FK_heur 000000018004e180 f   c16_Tetraedro_model_sem_sim_com_FK_heur.obj
 0001:0004d3b0       c16_chartstep_c16_Tetraedro_model_sem_sim_com_FK_heur 000000018004e3b0 f   c16_Tetraedro_model_sem_sim_com_FK_heur.obj
 0001:0004e120       c16_c_sf_marshallOut       000000018004f120 f   c16_Tetraedro_model_sem_sim_com_FK_heur.obj
 0001:0004e1d0       c16_b_sf_marshallIn        000000018004f1d0 f   c16_Tetraedro_model_sem_sim_com_FK_heur.obj
 0001:0004e270       c16_c_emlrt_marshallIn     000000018004f270 f   c16_Tetraedro_model_sem_sim_com_FK_heur.obj
 0001:0004e300       c16_d_sf_marshallOut       000000018004f300 f   c16_Tetraedro_model_sem_sim_com_FK_heur.obj
 0001:0004e440       c16_c_sf_marshallIn        000000018004f440 f   c16_Tetraedro_model_sem_sim_com_FK_heur.obj
 0001:0004e520       c16_d_emlrt_marshallIn     000000018004f520 f   c16_Tetraedro_model_sem_sim_com_FK_heur.obj
 0001:0004e600       c16_realmin                000000018004f600 f   c16_Tetraedro_model_sem_sim_com_FK_heur.obj
 0001:0004e610       c16_eml_error              000000018004f610 f   c16_Tetraedro_model_sem_sim_com_FK_heur.obj
 0001:0004e820       sf_opaque_get_sim_state_c16_Tetraedro_model_sem_sim_com_FK_heur 000000018004f820 f   c16_Tetraedro_model_sem_sim_com_FK_heur.obj
 0001:0004e840       sf_opaque_set_sim_state_c16_Tetraedro_model_sem_sim_com_FK_heur 000000018004f840 f   c16_Tetraedro_model_sem_sim_com_FK_heur.obj
 0001:0004e870       sf_opaque_terminate_c16_Tetraedro_model_sem_sim_com_FK_heur 000000018004f870 f   c16_Tetraedro_model_sem_sim_com_FK_heur.obj
 0001:0004e8f0       finalize_c16_Tetraedro_model_sem_sim_com_FK_heur 000000018004f8f0 f   c16_Tetraedro_model_sem_sim_com_FK_heur.obj
 0001:0004e900       sf_opaque_init_subchart_simstructs 000000018004f900 f   c16_Tetraedro_model_sem_sim_com_FK_heur.obj
 0001:0004e920       initSimStructsc16_Tetraedro_model_sem_sim_com_FK_heur 000000018004f920 f   c16_Tetraedro_model_sem_sim_com_FK_heur.obj
 0001:0004e930       mdlRTW_c16_Tetraedro_model_sem_sim_com_FK_heur 000000018004f930 f   c16_Tetraedro_model_sem_sim_com_FK_heur.obj
 0001:0004eda0       c19_info_helper            000000018004fda0 f   c19_Tetraedro_model_sem_sim_com_FK_heur.obj
 0001:00051c00       get_sim_state_c19_Tetraedro_model_sem_sim_com_FK_heur 0000000180052c00 f   c19_Tetraedro_model_sem_sim_com_FK_heur.obj
 0001:00051fd0       sf_get_sim_state_info_c19_Tetraedro_model_sem_sim_com_FK_heur 0000000180052fd0 f   c19_Tetraedro_model_sem_sim_com_FK_heur.obj
 0001:000521b0       set_sim_state_c19_Tetraedro_model_sem_sim_com_FK_heur 00000001800531b0 f   c19_Tetraedro_model_sem_sim_com_FK_heur.obj
 0001:00052400       c19_update_debugger_state_c19_Tetraedro_model_sem_sim_com_FK_heu 0000000180053400 f   c19_Tetraedro_model_sem_sim_com_FK_heur.obj
 0001:00052410       c19_emlrt_marshallIn       0000000180053410 f   c19_Tetraedro_model_sem_sim_com_FK_heur.obj
 0001:00052480       c19_b_emlrt_marshallIn     0000000180053480 f   c19_Tetraedro_model_sem_sim_com_FK_heur.obj
 0001:00052510       c19_c_emlrt_marshallIn     0000000180053510 f   c19_Tetraedro_model_sem_sim_com_FK_heur.obj
 0001:00052580       c19_d_emlrt_marshallIn     0000000180053580 f   c19_Tetraedro_model_sem_sim_com_FK_heur.obj
 0001:00052660       c19_e_emlrt_marshallIn     0000000180053660 f   c19_Tetraedro_model_sem_sim_com_FK_heur.obj
 0001:000526d0       c19_f_emlrt_marshallIn     00000001800536d0 f   c19_Tetraedro_model_sem_sim_com_FK_heur.obj
 0001:000527b0       c19_l_emlrt_marshallIn     00000001800537b0 f   c19_Tetraedro_model_sem_sim_com_FK_heur.obj
 0001:00052810       c19_m_emlrt_marshallIn     0000000180053810 f   c19_Tetraedro_model_sem_sim_com_FK_heur.obj
 0001:00052910       mdlProcessParameters_c19_Tetraedro_model_sem_sim_com_FK_heur 0000000180053910 f   c19_Tetraedro_model_sem_sim_com_FK_heur.obj
 0001:000529d0       initialize_params_c19_Tetraedro_model_sem_sim_com_FK_heur 00000001800539d0 f   c19_Tetraedro_model_sem_sim_com_FK_heur.obj
 0001:000529e0       mdlSetWorkWidths_c19_Tetraedro_model_sem_sim_com_FK_heur 00000001800539e0 f   c19_Tetraedro_model_sem_sim_com_FK_heur.obj
 0001:00052fc0       sf_get_instance_specialization 0000000180053fc0 f   c19_Tetraedro_model_sem_sim_com_FK_heur.obj
 0001:00052fd0       mdlStart_c19_Tetraedro_model_sem_sim_com_FK_heur 0000000180053fd0 f   c19_Tetraedro_model_sem_sim_com_FK_heur.obj
 0001:000531d0       init_dsm_address_info      00000001800541d0 f   c19_Tetraedro_model_sem_sim_com_FK_heur.obj
 0001:000531e0       chart_debug_initialization 00000001800541e0 f   c19_Tetraedro_model_sem_sim_com_FK_heur.obj
 0001:00054410       init_script_number_translation 0000000180055410 f   c19_Tetraedro_model_sem_sim_com_FK_heur.obj
 0001:00054420       c19_sf_marshallOut         0000000180055420 f   c19_Tetraedro_model_sem_sim_com_FK_heur.obj
 0001:000544d0       c19_sf_marshallIn          00000001800554d0 f   c19_Tetraedro_model_sem_sim_com_FK_heur.obj
 0001:00054570       c19_b_sf_marshallOut       0000000180055570 f   c19_Tetraedro_model_sem_sim_com_FK_heur.obj
 0001:00054760       c19_b_sf_marshallIn        0000000180055760 f   c19_Tetraedro_model_sem_sim_com_FK_heur.obj
 0001:000548c0       c19_c_sf_marshallOut       00000001800558c0 f   c19_Tetraedro_model_sem_sim_com_FK_heur.obj
 0001:00054a10       c19_c_sf_marshallIn        0000000180055a10 f   c19_Tetraedro_model_sem_sim_com_FK_heur.obj
 0001:00054b00       c19_d_sf_marshallOut       0000000180055b00 f   c19_Tetraedro_model_sem_sim_com_FK_heur.obj
 0001:00054c40       sf_opaque_initialize_c19_Tetraedro_model_sem_sim_com_FK_heur 0000000180055c40 f   c19_Tetraedro_model_sem_sim_com_FK_heur.obj
 0001:00054c80       initialize_c19_Tetraedro_model_sem_sim_com_FK_heur 0000000180055c80 f   c19_Tetraedro_model_sem_sim_com_FK_heur.obj
 0001:00054cd0       sf_opaque_enable_c19_Tetraedro_model_sem_sim_com_FK_heur 0000000180055cd0 f   c19_Tetraedro_model_sem_sim_com_FK_heur.obj
 0001:00054cf0       enable_c19_Tetraedro_model_sem_sim_com_FK_heur 0000000180055cf0 f   c19_Tetraedro_model_sem_sim_com_FK_heur.obj
 0001:00054d20       sf_opaque_disable_c19_Tetraedro_model_sem_sim_com_FK_heur 0000000180055d20 f   c19_Tetraedro_model_sem_sim_com_FK_heur.obj
 0001:00054d40       disable_c19_Tetraedro_model_sem_sim_com_FK_heur 0000000180055d40 f   c19_Tetraedro_model_sem_sim_com_FK_heur.obj
 0001:00054d70       sf_opaque_gateway_c19_Tetraedro_model_sem_sim_com_FK_heur 0000000180055d70 f   c19_Tetraedro_model_sem_sim_com_FK_heur.obj
 0001:00054d90       sf_c19_Tetraedro_model_sem_sim_com_FK_heur 0000000180055d90 f   c19_Tetraedro_model_sem_sim_com_FK_heur.obj
 0001:00055370       c19_chartstep_c19_Tetraedro_model_sem_sim_com_FK_heur 0000000180056370 f   c19_Tetraedro_model_sem_sim_com_FK_heur.obj
 0001:00059200       c19_e_sf_marshallOut       000000018005a200 f   c19_Tetraedro_model_sem_sim_com_FK_heur.obj
 0001:00059410       c19_d_sf_marshallIn        000000018005a410 f   c19_Tetraedro_model_sem_sim_com_FK_heur.obj
 0001:00059570       c19_g_emlrt_marshallIn     000000018005a570 f   c19_Tetraedro_model_sem_sim_com_FK_heur.obj
 0001:00059660       c19_e_sf_marshallIn        000000018005a660 f   c19_Tetraedro_model_sem_sim_com_FK_heur.obj
 0001:00059740       c19_h_emlrt_marshallIn     000000018005a740 f   c19_Tetraedro_model_sem_sim_com_FK_heur.obj
 0001:00059810       c19_f_sf_marshallOut       000000018005a810 f   c19_Tetraedro_model_sem_sim_com_FK_heur.obj
 0001:00059940       c19_f_sf_marshallIn        000000018005a940 f   c19_Tetraedro_model_sem_sim_com_FK_heur.obj
 0001:00059a20       c19_i_emlrt_marshallIn     000000018005aa20 f   c19_Tetraedro_model_sem_sim_com_FK_heur.obj
 0001:00059af0       c19_g_sf_marshallOut       000000018005aaf0 f   c19_Tetraedro_model_sem_sim_com_FK_heur.obj
 0001:00059cf0       c19_g_sf_marshallIn        000000018005acf0 f   c19_Tetraedro_model_sem_sim_com_FK_heur.obj
 0001:00059e50       c19_j_emlrt_marshallIn     000000018005ae50 f   c19_Tetraedro_model_sem_sim_com_FK_heur.obj
 0001:00059f30       c19_norm                   000000018005af30 f   c19_Tetraedro_model_sem_sim_com_FK_heur.obj
 0001:0005a140       c19_b_eml_scalar_eg        000000018005b140 f   c19_Tetraedro_model_sem_sim_com_FK_heur.obj
 0001:0005a150       c19_eye                    000000018005b150 f   c19_Tetraedro_model_sem_sim_com_FK_heur.obj
 0001:0005a340       c19_c_eml_scalar_eg        000000018005b340 f   c19_Tetraedro_model_sem_sim_com_FK_heur.obj
 0001:0005a350       c19_mpower                 000000018005b350 f   c19_Tetraedro_model_sem_sim_com_FK_heur.obj
 0001:0005a3e0       c19_eml_scalar_eg          000000018005b3e0 f   c19_Tetraedro_model_sem_sim_com_FK_heur.obj
 0001:0005a3f0       c19_d_eml_scalar_eg        000000018005b3f0 f   c19_Tetraedro_model_sem_sim_com_FK_heur.obj
 0001:0005a400       sf_opaque_get_sim_state_c19_Tetraedro_model_sem_sim_com_FK_heur 000000018005b400 f   c19_Tetraedro_model_sem_sim_com_FK_heur.obj
 0001:0005a420       sf_opaque_set_sim_state_c19_Tetraedro_model_sem_sim_com_FK_heur 000000018005b420 f   c19_Tetraedro_model_sem_sim_com_FK_heur.obj
 0001:0005a450       sf_opaque_terminate_c19_Tetraedro_model_sem_sim_com_FK_heur 000000018005b450 f   c19_Tetraedro_model_sem_sim_com_FK_heur.obj
 0001:0005a4d0       finalize_c19_Tetraedro_model_sem_sim_com_FK_heur 000000018005b4d0 f   c19_Tetraedro_model_sem_sim_com_FK_heur.obj
 0001:0005a4e0       sf_opaque_init_subchart_simstructs 000000018005b4e0 f   c19_Tetraedro_model_sem_sim_com_FK_heur.obj
 0001:0005a500       initSimStructsc19_Tetraedro_model_sem_sim_com_FK_heur 000000018005b500 f   c19_Tetraedro_model_sem_sim_com_FK_heur.obj
 0001:0005a510       mdlRTW_c19_Tetraedro_model_sem_sim_com_FK_heur 000000018005b510 f   c19_Tetraedro_model_sem_sim_com_FK_heur.obj
 0001:0005a990       c21_info_helper            000000018005b990 f   c21_Tetraedro_model_sem_sim_com_FK_heur.obj
 0001:0005cb60       c21_b_info_helper          000000018005db60 f   c21_Tetraedro_model_sem_sim_com_FK_heur.obj
 0001:0005ea70       get_sim_state_c21_Tetraedro_model_sem_sim_com_FK_heur 000000018005fa70 f   c21_Tetraedro_model_sem_sim_com_FK_heur.obj
 0001:0005ee60       sf_get_sim_state_info_c21_Tetraedro_model_sem_sim_com_FK_heur 000000018005fe60 f   c21_Tetraedro_model_sem_sim_com_FK_heur.obj
 0001:0005f040       set_sim_state_c21_Tetraedro_model_sem_sim_com_FK_heur 0000000180060040 f   c21_Tetraedro_model_sem_sim_com_FK_heur.obj
 0001:0005f2c0       c21_update_debugger_state_c21_Tetraedro_model_sem_sim_com_FK_heu 00000001800602c0 f   c21_Tetraedro_model_sem_sim_com_FK_heur.obj
 0001:0005f2d0       c21_emlrt_marshallIn       00000001800602d0 f   c21_Tetraedro_model_sem_sim_com_FK_heur.obj
 0001:0005f340       c21_b_emlrt_marshallIn     0000000180060340 f   c21_Tetraedro_model_sem_sim_com_FK_heur.obj
 0001:0005f430       c21_c_emlrt_marshallIn     0000000180060430 f   c21_Tetraedro_model_sem_sim_com_FK_heur.obj
 0001:0005f4a0       c21_d_emlrt_marshallIn     00000001800604a0 f   c21_Tetraedro_model_sem_sim_com_FK_heur.obj
 0001:0005f580       c21_e_emlrt_marshallIn     0000000180060580 f   c21_Tetraedro_model_sem_sim_com_FK_heur.obj
 0001:0005f5f0       c21_f_emlrt_marshallIn     00000001800605f0 f   c21_Tetraedro_model_sem_sim_com_FK_heur.obj
 0001:0005f6d0       c21_t_emlrt_marshallIn     00000001800606d0 f   c21_Tetraedro_model_sem_sim_com_FK_heur.obj
 0001:0005f730       c21_u_emlrt_marshallIn     0000000180060730 f   c21_Tetraedro_model_sem_sim_com_FK_heur.obj
 0001:0005f830       mdlProcessParameters_c21_Tetraedro_model_sem_sim_com_FK_heur 0000000180060830 f   c21_Tetraedro_model_sem_sim_com_FK_heur.obj
 0001:0005f8f0       initialize_params_c21_Tetraedro_model_sem_sim_com_FK_heur 00000001800608f0 f   c21_Tetraedro_model_sem_sim_com_FK_heur.obj
 0001:0005f900       mdlSetWorkWidths_c21_Tetraedro_model_sem_sim_com_FK_heur 0000000180060900 f   c21_Tetraedro_model_sem_sim_com_FK_heur.obj
 0001:0005feb0       sf_get_instance_specialization 0000000180060eb0 f   c21_Tetraedro_model_sem_sim_com_FK_heur.obj
 0001:0005fec0       mdlStart_c21_Tetraedro_model_sem_sim_com_FK_heur 0000000180060ec0 f   c21_Tetraedro_model_sem_sim_com_FK_heur.obj
 0001:000600c0       init_dsm_address_info      00000001800610c0 f   c21_Tetraedro_model_sem_sim_com_FK_heur.obj
 0001:000600d0       chart_debug_initialization 00000001800610d0 f   c21_Tetraedro_model_sem_sim_com_FK_heur.obj
 0001:00061280       init_script_number_translation 0000000180062280 f   c21_Tetraedro_model_sem_sim_com_FK_heur.obj
 0001:00061290       c21_sf_marshallOut         0000000180062290 f   c21_Tetraedro_model_sem_sim_com_FK_heur.obj
 0001:000614b0       c21_sf_marshallIn          00000001800624b0 f   c21_Tetraedro_model_sem_sim_com_FK_heur.obj
 0001:000615f0       c21_b_sf_marshallOut       00000001800625f0 f   c21_Tetraedro_model_sem_sim_com_FK_heur.obj
 0001:00061820       c21_b_sf_marshallIn        0000000180062820 f   c21_Tetraedro_model_sem_sim_com_FK_heur.obj
 0001:00061960       c21_c_sf_marshallOut       0000000180062960 f   c21_Tetraedro_model_sem_sim_com_FK_heur.obj
 0001:00061aa0       c21_c_sf_marshallIn        0000000180062aa0 f   c21_Tetraedro_model_sem_sim_com_FK_heur.obj
 0001:00061b90       c21_d_sf_marshallOut       0000000180062b90 f   c21_Tetraedro_model_sem_sim_com_FK_heur.obj
 0001:00061c40       c21_e_sf_marshallOut       0000000180062c40 f   c21_Tetraedro_model_sem_sim_com_FK_heur.obj
 0001:00061e70       c21_f_sf_marshallOut       0000000180062e70 f   c21_Tetraedro_model_sem_sim_com_FK_heur.obj
 0001:00061fb0       sf_opaque_initialize_c21_Tetraedro_model_sem_sim_com_FK_heur 0000000180062fb0 f   c21_Tetraedro_model_sem_sim_com_FK_heur.obj
 0001:00061ff0       initialize_c21_Tetraedro_model_sem_sim_com_FK_heur 0000000180062ff0 f   c21_Tetraedro_model_sem_sim_com_FK_heur.obj
 0001:00062040       sf_opaque_enable_c21_Tetraedro_model_sem_sim_com_FK_heur 0000000180063040 f   c21_Tetraedro_model_sem_sim_com_FK_heur.obj
 0001:00062060       enable_c21_Tetraedro_model_sem_sim_com_FK_heur 0000000180063060 f   c21_Tetraedro_model_sem_sim_com_FK_heur.obj
 0001:00062090       sf_opaque_disable_c21_Tetraedro_model_sem_sim_com_FK_heur 0000000180063090 f   c21_Tetraedro_model_sem_sim_com_FK_heur.obj
 0001:000620b0       disable_c21_Tetraedro_model_sem_sim_com_FK_heur 00000001800630b0 f   c21_Tetraedro_model_sem_sim_com_FK_heur.obj
 0001:000620e0       sf_opaque_gateway_c21_Tetraedro_model_sem_sim_com_FK_heur 00000001800630e0 f   c21_Tetraedro_model_sem_sim_com_FK_heur.obj
 0001:00062100       sf_c21_Tetraedro_model_sem_sim_com_FK_heur 0000000180063100 f   c21_Tetraedro_model_sem_sim_com_FK_heur.obj
 0001:000626b0       c21_chartstep_c21_Tetraedro_model_sem_sim_com_FK_heur 00000001800636b0 f   c21_Tetraedro_model_sem_sim_com_FK_heur.obj
 0001:000667a0       c21_d_sf_marshallIn        00000001800677a0 f   c21_Tetraedro_model_sem_sim_com_FK_heur.obj
 0001:00066840       c21_g_emlrt_marshallIn     0000000180067840 f   c21_Tetraedro_model_sem_sim_com_FK_heur.obj
 0001:000668d0       c21_g_sf_marshallOut       00000001800678d0 f   c21_Tetraedro_model_sem_sim_com_FK_heur.obj
 0001:00066b00       c21_e_sf_marshallIn        0000000180067b00 f   c21_Tetraedro_model_sem_sim_com_FK_heur.obj
 0001:00066c40       c21_h_emlrt_marshallIn     0000000180067c40 f   c21_Tetraedro_model_sem_sim_com_FK_heur.obj
 0001:00066d20       c21_h_sf_marshallOut       0000000180067d20 f   c21_Tetraedro_model_sem_sim_com_FK_heur.obj
 0001:00066f30       c21_f_sf_marshallIn        0000000180067f30 f   c21_Tetraedro_model_sem_sim_com_FK_heur.obj
 0001:00067060       c21_i_emlrt_marshallIn     0000000180068060 f   c21_Tetraedro_model_sem_sim_com_FK_heur.obj
 0001:00067150       c21_g_sf_marshallIn        0000000180068150 f   c21_Tetraedro_model_sem_sim_com_FK_heur.obj
 0001:00067290       c21_j_emlrt_marshallIn     0000000180068290 f   c21_Tetraedro_model_sem_sim_com_FK_heur.obj
 0001:00067370       c21_i_sf_marshallOut       0000000180068370 f   c21_Tetraedro_model_sem_sim_com_FK_heur.obj
 0001:00067580       c21_h_sf_marshallIn        0000000180068580 f   c21_Tetraedro_model_sem_sim_com_FK_heur.obj
 0001:000676b0       c21_k_emlrt_marshallIn     00000001800686b0 f   c21_Tetraedro_model_sem_sim_com_FK_heur.obj
 0001:00067790       c21_j_sf_marshallOut       0000000180068790 f   c21_Tetraedro_model_sem_sim_com_FK_heur.obj
 0001:000679b0       c21_i_sf_marshallIn        00000001800689b0 f   c21_Tetraedro_model_sem_sim_com_FK_heur.obj
 0001:00067af0       c21_l_emlrt_marshallIn     0000000180068af0 f   c21_Tetraedro_model_sem_sim_com_FK_heur.obj
 0001:00067bd0       c21_k_sf_marshallOut       0000000180068bd0 f   c21_Tetraedro_model_sem_sim_com_FK_heur.obj
 0001:00067e00       c21_j_sf_marshallIn        0000000180068e00 f   c21_Tetraedro_model_sem_sim_com_FK_heur.obj
 0001:00067f40       c21_m_emlrt_marshallIn     0000000180068f40 f   c21_Tetraedro_model_sem_sim_com_FK_heur.obj
 0001:00068030       c21_l_sf_marshallOut       0000000180069030 f   c21_Tetraedro_model_sem_sim_com_FK_heur.obj
 0001:00068250       c21_k_sf_marshallIn        0000000180069250 f   c21_Tetraedro_model_sem_sim_com_FK_heur.obj
 0001:00068380       c21_n_emlrt_marshallIn     0000000180069380 f   c21_Tetraedro_model_sem_sim_com_FK_heur.obj
 0001:00068470       c21_m_sf_marshallOut       0000000180069470 f   c21_Tetraedro_model_sem_sim_com_FK_heur.obj
 0001:000685b0       c21_l_sf_marshallIn        00000001800695b0 f   c21_Tetraedro_model_sem_sim_com_FK_heur.obj
 0001:00068690       c21_o_emlrt_marshallIn     0000000180069690 f   c21_Tetraedro_model_sem_sim_com_FK_heur.obj
 0001:00068760       c21_m_sf_marshallIn        0000000180069760 f   c21_Tetraedro_model_sem_sim_com_FK_heur.obj
 0001:00068840       c21_p_emlrt_marshallIn     0000000180069840 f   c21_Tetraedro_model_sem_sim_com_FK_heur.obj
 0001:00068910       c21_eye                    0000000180069910 f   c21_Tetraedro_model_sem_sim_com_FK_heur.obj
 0001:00068b00       c21_mod                    0000000180069b00 f   c21_Tetraedro_model_sem_sim_com_FK_heur.obj
 0001:00068d70       c21_eml_scalar_eg          0000000180069d70 f   c21_Tetraedro_model_sem_sim_com_FK_heur.obj
 0001:00068d80       c21_eps                    0000000180069d80 f   c21_Tetraedro_model_sem_sim_com_FK_heur.obj
 0001:00068d90       c21_b_eml_scalar_eg        0000000180069d90 f   c21_Tetraedro_model_sem_sim_com_FK_heur.obj
 0001:00068da0       c21_c_eml_scalar_eg        0000000180069da0 f   c21_Tetraedro_model_sem_sim_com_FK_heur.obj
 0001:00068db0       c21_b_eye                  0000000180069db0 f   c21_Tetraedro_model_sem_sim_com_FK_heur.obj
 0001:00068f90       c21_inv                    0000000180069f90 f   c21_Tetraedro_model_sem_sim_com_FK_heur.obj
 0001:000695c0       c21_inv3x3                 000000018006a5c0 f   c21_Tetraedro_model_sem_sim_com_FK_heur.obj
 0001:0006ab70       c21_norm                   000000018006bb70 f   c21_Tetraedro_model_sem_sim_com_FK_heur.obj
 0001:0006ae90       c21_eml_warning            000000018006be90 f   c21_Tetraedro_model_sem_sim_com_FK_heur.obj
 0001:0006afc0       c21_b_eml_warning          000000018006bfc0 f   c21_Tetraedro_model_sem_sim_com_FK_heur.obj
 0001:0006b1d0       c21_d_eml_scalar_eg        000000018006c1d0 f   c21_Tetraedro_model_sem_sim_com_FK_heur.obj
 0001:0006b1e0       c21_e_eml_scalar_eg        000000018006c1e0 f   c21_Tetraedro_model_sem_sim_com_FK_heur.obj
 0001:0006b1f0       c21_f_eml_scalar_eg        000000018006c1f0 f   c21_Tetraedro_model_sem_sim_com_FK_heur.obj
 0001:0006b200       c21_g_eml_scalar_eg        000000018006c200 f   c21_Tetraedro_model_sem_sim_com_FK_heur.obj
 0001:0006b210       c21_h_eml_scalar_eg        000000018006c210 f   c21_Tetraedro_model_sem_sim_com_FK_heur.obj
 0001:0006b220       c21_dot                    000000018006c220 f   c21_Tetraedro_model_sem_sim_com_FK_heur.obj
 0001:0006b410       c21_i_eml_scalar_eg        000000018006c410 f   c21_Tetraedro_model_sem_sim_com_FK_heur.obj
 0001:0006b420       c21_j_eml_scalar_eg        000000018006c420 f   c21_Tetraedro_model_sem_sim_com_FK_heur.obj
 0001:0006b430       c21_q_emlrt_marshallIn     000000018006c430 f   c21_Tetraedro_model_sem_sim_com_FK_heur.obj
 0001:0006b4a0       c21_r_emlrt_marshallIn     000000018006c4a0 f   c21_Tetraedro_model_sem_sim_com_FK_heur.obj
 0001:0006b5a0       sf_opaque_get_sim_state_c21_Tetraedro_model_sem_sim_com_FK_heur 000000018006c5a0 f   c21_Tetraedro_model_sem_sim_com_FK_heur.obj
 0001:0006b5c0       sf_opaque_set_sim_state_c21_Tetraedro_model_sem_sim_com_FK_heur 000000018006c5c0 f   c21_Tetraedro_model_sem_sim_com_FK_heur.obj
 0001:0006b5f0       sf_opaque_terminate_c21_Tetraedro_model_sem_sim_com_FK_heur 000000018006c5f0 f   c21_Tetraedro_model_sem_sim_com_FK_heur.obj
 0001:0006b670       finalize_c21_Tetraedro_model_sem_sim_com_FK_heur 000000018006c670 f   c21_Tetraedro_model_sem_sim_com_FK_heur.obj
 0001:0006b680       sf_opaque_init_subchart_simstructs 000000018006c680 f   c21_Tetraedro_model_sem_sim_com_FK_heur.obj
 0001:0006b6a0       initSimStructsc21_Tetraedro_model_sem_sim_com_FK_heur 000000018006c6a0 f   c21_Tetraedro_model_sem_sim_com_FK_heur.obj
 0001:0006b6b0       mdlRTW_c21_Tetraedro_model_sem_sim_com_FK_heur 000000018006c6b0 f   c21_Tetraedro_model_sem_sim_com_FK_heur.obj
 0001:0006d360       _ssFatalError              000000018006e360 f   Tetraedro_model_sem_sim_com_FK_heur_sfun_registry.obj
 0001:000703e0       ProcessMexSfunctionCmdLineCall 00000001800713e0 f   Tetraedro_model_sem_sim_com_FK_heur_sfun_registry.obj
 0001:000704f0       sf_debug_api_wrapper       00000001800714f0 f   Tetraedro_model_sem_sim_com_FK_heur_sfun_registry.obj
 0001:00070540       mdlGetTimeOfNextVarHit     0000000180071540 f   Tetraedro_model_sem_sim_com_FK_heur_sfun_registry.obj
 0001:000705a0       _ProcessMexSfunctionCmdLineCall 00000001800715a0 f   Tetraedro_model_sem_sim_com_FK_heur_sfun_registry.obj
 0001:00070ce0       _CreateSimStruct           0000000180071ce0 f   Tetraedro_model_sem_sim_com_FK_heur_sfun_registry.obj
 0001:00070e70       _RegNumInputPortsCB        0000000180071e70 f   Tetraedro_model_sem_sim_com_FK_heur_sfun_registry.obj
 0001:00070ef0       _RegNumOutputPortsCB       0000000180071ef0 f   Tetraedro_model_sem_sim_com_FK_heur_sfun_registry.obj
 0001:00070fd0       sf_machine_load_sfunction_ptrs 0000000180071fd0 f   Tetraedro_model_sem_sim_com_FK_heur_sfun_registry.obj
 0001:000729e0       getThreadLocalStorage      00000001800739e0 f   sfc_mex:sfc_mex.obj
 0001:00072a20       releaseThreadLocalStorage  0000000180073a20 f   sfc_mex:sfc_mex.obj
 0001:00072a30       SNPRINTF_WRAPPER           0000000180073a30 f   sfc_mex:sfc_mex.obj
 0001:00072a50       convert_dims_to_string     0000000180073a50 f   sfc_mex:sfc_mex.obj
 0001:00072c70       is_real_T_equal_to_double  0000000180073c70 f   sfc_mex:sfc_mex.obj
 0001:00072c90       is_real32_T_equal_to_double 0000000180073c90 f   sfc_mex:sfc_mex.obj
 0001:00072ca0       is_mxLogical_equal_to_double 0000000180073ca0 f   sfc_mex:sfc_mex.obj
 0001:00072cc0       is_int8_T_equal_to_double  0000000180073cc0 f   sfc_mex:sfc_mex.obj
 0001:00072ce0       is_uint8_T_equal_to_double 0000000180073ce0 f   sfc_mex:sfc_mex.obj
 0001:00072d00       is_int16_T_equal_to_double 0000000180073d00 f   sfc_mex:sfc_mex.obj
 0001:00072d20       is_uint16_T_equal_to_double 0000000180073d20 f   sfc_mex:sfc_mex.obj
 0001:00072d40       is_int32_T_equal_to_double 0000000180073d40 f   sfc_mex:sfc_mex.obj
 0001:00072d60       is_uint32_T_equal_to_double 0000000180073d60 f   sfc_mex:sfc_mex.obj
 0001:00072d80       is_char_T_equal_to_double  0000000180073d80 f   sfc_mex:sfc_mex.obj
 0001:00072da0       sf_zero_numeric_value      0000000180073da0 f   sfc_mex:sfc_mex.obj
 0001:00072dd0       sf_error_append_debugger_context_if_available 0000000180073dd0 f   sfc_mex:sfc_mex.obj
 0001:00072eb0       sf_mex_get_error_message_for_write 0000000180073eb0 f   sfc_mex:sfc_mex.obj
 0001:00072ee0       replace_single_quotes_by_doubled_quotes 0000000180073ee0 f   sfc_mex:sfc_mex.obj
 0001:00073120       sf_mex_get_formatted_error_string 0000000180074120 f   sfc_mex:sfc_mex.obj
 0001:00073690       sf_mex_destroy_array       0000000180074690 f   sfc_mex:sfc_mex.obj
 0001:00073a20       sfrtAddSize                0000000180074a20 f   sfc_mex:sfc_mex.obj
 0001:00073ae0       sfrtGenSizeString          0000000180074ae0 f   sfc_mex:sfc_mex.obj
 0001:00073bc0       sfIsProperVector           0000000180074bc0 f   sfc_mex:sfc_mex.obj
 0001:00073bf0       sfIsRowVector              0000000180074bf0 f   sfc_mex:sfc_mex.obj
 0001:00073d30       sf_ExtractMessageId        0000000180074d30 f   sfc_mex:sfc_mex.obj
 0001:00074020       sf_mex_err                 0000000180075020 f   sfc_mex:sfc_mex.obj
 0001:000740d0       sf_error_dimension_out_of_bound 00000001800750d0 f   sfc_mex:sfc_mex.obj
 0001:00074190       sf_mex_check_and_set_actual_dimensions 0000000180075190 f   sfc_mex:sfc_mex.obj
 0001:00074370       sf_mex_check_complex       0000000180075370 f   sfc_mex:sfc_mex.obj
 0001:00074400       sf_mex_check_sparse        0000000180075400 f   sfc_mex:sfc_mex.obj
 0001:00074460       sf_mex_check_numerictype   0000000180075460 f   sfc_mex:sfc_mex.obj
 0001:000745f0       sf_mex_check_fimath        00000001800755f0 f   sfc_mex:sfc_mex.obj
 0001:00075150       size_mismatch_error        0000000180076150 f   sfc_mex:sfc_mex.obj
 0001:00075bc0       check_array_dimensions     0000000180076bc0 f   sfc_mex:sfc_mex.obj
 0001:00075c30       check_input_mxarray        0000000180076c30 f   sfc_mex:sfc_mex.obj
 0001:00076370       sf_numeric_value_to_double 0000000180077370 f   sfc_mex:sfc_mex.obj
 0001:000763c0       ml_generic_out_of_bounds_check 00000001800773c0 f   sfc_mex:sfc_mex.obj
 0001:00076580       ml_get_element_value_from_array 0000000180077580 f   sfc_mex:sfc_mex.obj
 0001:00076920       _ml_generic_castability_check 0000000180077920 f   sfc_mex:sfc_mex.obj
 0001:00077070       ml_generic_castability_check 0000000180078070 f   sfc_mex:sfc_mex.obj
 0001:00077110       ml_check_mx_array_for_single_castability 0000000180078110 f   sfc_mex:sfc_mex.obj
 0001:000771b0       ml_check_mx_array_for_logical_castability 00000001800781b0 f   sfc_mex:sfc_mex.obj
 0001:00077250       ml_check_mx_array_for_int8_castability 0000000180078250 f   sfc_mex:sfc_mex.obj
 0001:00077300       ml_check_mx_array_for_uint8_castability 0000000180078300 f   sfc_mex:sfc_mex.obj
 0001:00077360       ml_check_mx_array_for_int16_castability 0000000180078360 f   sfc_mex:sfc_mex.obj
 0001:000773c0       ml_check_mx_array_for_uint16_castability 00000001800783c0 f   sfc_mex:sfc_mex.obj
 0001:00077420       ml_check_mx_array_for_int32_castability 0000000180078420 f   sfc_mex:sfc_mex.obj
 0001:00077480       ml_check_mx_array_for_uint32_castability 0000000180078480 f   sfc_mex:sfc_mex.obj
 0001:000774e0       ml_check_mx_array_for_castability 00000001800784e0 f   sfc_mex:sfc_mex.obj
 0001:00077d00       set_data_value             0000000180078d00 f   sfc_mex:sfc_mex.obj
 0001:00078070       get_data_value             0000000180079070 f   sfc_mex:sfc_mex.obj
 0001:00078180       get_next_element_address   0000000180079180 f   sfc_mex:sfc_mex.obj
 0001:00078250       sf_normalize_index         0000000180079250 f   sfc_mex:sfc_mex.obj
 0001:00078600       ml_array_index_bound_check 0000000180079600 f   sfc_mex:sfc_mex.obj
 0001:00079180       mx_value                   000000018007a180 f   sfc_mex:sfc_mex.obj
 0001:000791d0       sf_create_numeric_array    000000018007a1d0 f   sfc_mex:sfc_mex.obj
 0001:00079270       sf_mex_assign_to_mx_array  000000018007a270 f   sfc_mex:sfc_mex.obj
 0001:000795e0       assign_from_mx_array       000000018007a5e0 f   sfc_mex:sfc_mex.obj
 0001:00079d40       sf_mex_import_v            000000018007ad40 f   sfc_mex:sfc_mex.obj
 0001:0007a450       get_machine_and_chart_file_number 000000018007b450 f   sfc_mex:sfc_sf.obj
 0001:0007a540       get_sfun_block_specialization 000000018007b540 f   sfc_mex:sfc_sf.obj
 0001:0007a5f0       call_sf_machine_global_method_dispatcher 000000018007b5f0 f   sfc_mex:sfc_sf.obj
 0001:0007a840       mdl_zeroCrossings_processing 000000018007b840 f   sfc_mex:sfc_sf.obj
 0001:0007a920       mdl_derivatives_processing 000000018007b920 f   sfc_mex:sfc_sf.obj
 0001:0007ac00       mdl_outputs_continuous_legacy 000000018007bc00 f   sfc_mex:sfc_sf.obj
 0001:0007ac80       mdl_outputs_processing     000000018007bc80 f   sfc_mex:sfc_sf.obj
 0001:0007aef0       mdl_enable_processing      000000018007bef0 f   sfc_mex:sfc_sf.obj
 0001:0007afd0       mdl_disable_processing     000000018007bfd0 f   sfc_mex:sfc_sf.obj
 0001:0007be60       sf_call_output_fcn_enable_disable 000000018007ce60 f   sfc_mex:sfc_sf.obj
 0001:0007c0e0       set_dwork_information_from_mx_array 000000018007d0e0 f   sfc_mex:sfc_sf.obj
 0001:0007c9d0       ptr2mxStruct               000000018007d9d0 f   sfc_mex:sfc_sf.obj
 0001:0007cce0       SNPRINTF_WRAPPER           000000018007dce0 f   sfc_debug:sfcdebug.obj
 0001:0007cd10       sf_debug_chart_instance_initialized 000000018007dd10 f   sfc_debug:sfcdebug.obj
 0001:0007ceb0       sfrtAddSize                000000018007deb0 f   sfc_debug:sfcdebug.obj
 0001:0007cf70       sfrtGenSizeString          000000018007df70 f   sfc_debug:sfcdebug.obj
 0001:0007d6c0       fill_single_message_info   000000018007e6c0 f   sfc_debug:sfcdebug.obj
 0001:0007d940       sf_debug_sim_status_listener 000000018007e940 f   sfc_debug:sfcdebug.obj
 0001:0007ded0       sf_debug_form_mask_bits    000000018007eed0 f   sfc_debug:sfcdebug.obj
 0001:0007def0       sf_debug_form_sf_data_type_offsets 000000018007eef0 f   sfc_debug:sfcdebug.obj
 0001:0007dfb0       sf_debug_free_all          000000018007efb0 f   sfc_debug:sfcdebug.obj
 0001:0007e140       sf_debug_append_debugger_context 000000018007f140 f   sfc_debug:sfcdebug.obj
 0001:0007e4b0       local_strdup               000000018007f4b0 f   sfc_debug:sfcdebug.obj
 0001:0007f430       sf_debug_em_terminate      0000000180080430 f   sfc_debug:sfcdebug.obj
 0001:0007f470       sf_debug_push_eml_function 0000000180080470 f   sfc_debug:sfcdebug.obj
 0001:0007f510       sf_debug_pop_eml_function  0000000180080510 f   sfc_debug:sfcdebug.obj
 0001:000801b0       sf_debug_get_machine_number_from_id_or_name 00000001800811b0 f   sfc_debug:sfcdebug.obj
 0001:00080300       sf_debug_get_chart_number_from_id 0000000180081300 f   sfc_debug:sfcdebug.obj
 0001:000810e0       sf_debug_transfer_control_to_debugger_GUI 00000001800820e0 f   sfc_debug:sfcdebug.obj
 0001:00082050       sf_debug_scripts_rehash    0000000180083050 f   sfc_debug:sfcdebug.obj
 0001:00082260       sf_debug_get_script_line_count 0000000180083260 f   sfc_debug:sfcdebug.obj
 0001:00082cb0       cv_eml_state_cvId          0000000180083cb0 f   sfc_debug:sfcdebug.obj
 0001:00082d20       cv_eml_trans_cvId          0000000180083d20 f   sfc_debug:sfcdebug.obj
 0001:000841a0       sf_debug_data_array_bounds_error 00000001800851a0 f   sfc_debug:sfcdebug.obj
 0001:00084550       eml_debug_runtime_error_doclink 0000000180085550 f   sfc_debug:sfcdebug.obj
 0001:000846c0       sf_debug_runtime_error     00000001800856c0 f   sfc_debug:sfcdebug.obj
 0001:00084730       sf_debug_matlab_error      0000000180085730 f   sfc_debug:sfcdebug.obj
 0001:000850a0       sf_debug_data_value_error  00000001800860a0 f   sfc_debug:sfcdebug.obj
 0001:00085970       sf_debug_data_loss_error   0000000180086970 f   sfc_debug:sfcdebug.obj
 0001:00086890       call_cv_range_check        0000000180087890 f   sfc_debug:sfcdebug.obj
 0001:000870f0       sf_debug_invoke_cycle_detection_code 00000001800880f0 f   sfc_debug:sfcdebug.obj
 0001:00087c60       sf_reset_debug_info_struct 0000000180088c60 f   sfc_debug:sfcdebug.obj
 0001:00088450       cv_script_cvId             0000000180089450 f   sfc_debug:sfcdebug.obj
 0001:00089610       sfc_api_chart_visible      000000018008a610 f   sfc_debug:sfc_api.obj
 0001:000896a0       sfc_api_active_instance    000000018008a6a0 f   sfc_debug:sfc_api.obj
 0001:00089730       sfc_api_machine_load       000000018008a730 f   sfc_debug:sfc_api.obj
 0001:00089820       sfc_api_debugger_alive     000000018008a820 f   sfc_debug:sfc_api.obj
 0001:00089830       sfc_api_go                 000000018008a830 f   sfc_debug:sfc_api.obj
 0001:00089840       sfc_api_step_over          000000018008a840 f   sfc_debug:sfc_api.obj
 0001:00089850       sfc_api_step_out           000000018008a850 f   sfc_debug:sfc_api.obj
 0001:00089860       sfc_api_resume             000000018008a860 f   sfc_debug:sfc_api.obj
 0001:00089870       sfc_api_break              000000018008a870 f   sfc_debug:sfc_api.obj
 0001:00089880       sfc_api_stop_debugging     000000018008a880 f   sfc_debug:sfc_api.obj
 0001:000898e0       sfc_api_is_cycle_detected  000000018008a8e0 f   sfc_debug:sfc_api.obj
 0001:00089940       sfc_api_is_array_bounds_detected 000000018008a940 f   sfc_debug:sfc_api.obj
 0001:000899a0       sfc_api_set_disable_all_breakpoints 000000018008a9a0 f   sfc_debug:sfc_api.obj
 0001:00089a20       sfc_api_disable_all_breakpoints_and_go 000000018008aa20 f   sfc_debug:sfc_api.obj
 0001:00089a30       sfc_api_close              000000018008aa30 f   sfc_debug:sfc_api.obj
 0001:00089a40       sfc_api_browse_data        000000018008aa40 f   sfc_debug:sfc_api.obj
 0001:00089ac0       sfc_api_watch_data         000000018008aac0 f   sfc_debug:sfc_api.obj
 0001:00089bd0       sfc_api_extract_message_post_receive_info 000000018008abd0 f   sfc_debug:sfc_api.obj
 0001:00089bf0       sfc_api_assign_data        000000018008abf0 f   sfc_debug:sfc_api.obj
 0001:00089ca0       sfc_api_whos               000000018008aca0 f   sfc_debug:sfc_api.obj
 0001:00089d30       sfc_api_get_consistency_info 000000018008ad30 f   sfc_debug:sfc_api.obj
 0001:00089d40       sfc_api_browse_trace       000000018008ad40 f   sfc_debug:sfc_api.obj
 0001:00089d50       sfc_api_break_on_chart_entry 000000018008ad50 f   sfc_debug:sfc_api.obj
 0001:00089d80       sfc_api_break_on_event_broadcast 000000018008ad80 f   sfc_debug:sfc_api.obj
 0001:00089db0       sfc_api_break_on_state_entry 000000018008adb0 f   sfc_debug:sfc_api.obj
 0001:00089de0       sfc_api_set_watch          000000018008ade0 f   sfc_debug:sfc_api.obj
 0001:00089e90       sfc_api_set_breakpoints    000000018008ae90 f   sfc_debug:sfc_api.obj
 0001:00089f50       sfc_api_set_eml_breakpoints 000000018008af50 f   sfc_debug:sfc_api.obj
 0001:00089ff0       sfc_api_set_script_breakpoints 000000018008aff0 f   sfc_debug:sfc_api.obj
 0001:0008a050       sfc_api_add_script_breakpoints 000000018008b050 f   sfc_debug:sfc_api.obj
 0001:0008a0b0       sfc_api_clear_script_breakpoints 000000018008b0b0 f   sfc_debug:sfc_api.obj
 0001:0008a110       sfc_api_query_script_breakpoints 000000018008b110 f   sfc_debug:sfc_api.obj
 0001:0008a180       sfc_api_get_script_id      000000018008b180 f   sfc_debug:sfc_api.obj
 0001:0008a240       sfc_api_get_active_states  000000018008b240 f   sfc_debug:sfc_api.obj
 0001:0008a2d0       sfc_api_break_between_times 000000018008b2d0 f   sfc_debug:sfc_api.obj
 0001:0008a340       sfc_api_get_instance_handle 000000018008b340 f   sfc_debug:sfc_api.obj
 0001:0008a410       sfc_api_set_animation      000000018008b410 f   sfc_debug:sfc_api.obj
 0001:0008a460       sfc_api_select_chart       000000018008b460 f   sfc_debug:sfc_api.obj
 0001:0008a4d0       sfc_api_select_charts      000000018008b4d0 f   sfc_debug:sfc_api.obj
 0001:0008a500       sfc_api_cycle_detection_check 000000018008b500 f   sfc_debug:sfc_api.obj
 0001:0008a550       sfc_api_data_range_check   000000018008b550 f   sfc_debug:sfc_api.obj
 0001:0008a5a0       sfc_api_transition_conflict_check 000000018008b5a0 f   sfc_debug:sfc_api.obj
 0001:0008a5f0       sfc_api_state_consistency_check 000000018008b5f0 f   sfc_debug:sfc_api.obj
 0001:0008a640       sfc_api_set_instance_cv_ids 000000018008b640 f   sfc_debug:sfc_api.obj
 0001:0008a770       sfc_api_set_script_cv_ids  000000018008b770 f   sfc_debug:sfc_api.obj
 0001:0008a840       sfc_api_get_current_machine_id 000000018008b840 f   sfc_debug:sfc_api.obj
 0001:0008a870       sfc_api_get_current_machine_number 000000018008b870 f   sfc_debug:sfc_api.obj
 0001:0008a8a0       sfc_api_get_current_chart_number 000000018008b8a0 f   sfc_debug:sfc_api.obj
 0001:0008a8d0       sfc_api_get_current_instance_number 000000018008b8d0 f   sfc_debug:sfc_api.obj
 0001:0008a900       sfc_api_get_current_instance_handle 000000018008b900 f   sfc_debug:sfc_api.obj
 0001:0008a920       sfc_api_get_current_is_minor_time_step 000000018008b920 f   sfc_debug:sfc_api.obj
 0001:0008a950       sfc_api_get_current_machine_name 000000018008b950 f   sfc_debug:sfc_api.obj
 0001:0008a970       sfc_api_get_current_chart_id 000000018008b970 f   sfc_debug:sfc_api.obj
 0001:0008a9a0       sfc_api_get_current_object_type 000000018008b9a0 f   sfc_debug:sfc_api.obj
 0001:0008a9d0       sfc_api_get_current_event_type 000000018008b9d0 f   sfc_debug:sfc_api.obj
 0001:0008aa00       sfc_api_get_current_object_id 000000018008ba00 f   sfc_debug:sfc_api.obj
 0001:0008aa30       sfc_get_current_active_event_type 000000018008ba30 f   sfc_debug:sfc_api.obj
 0001:0008aa60       sfc_api_get_current_active_event_id 000000018008ba60 f   sfc_debug:sfc_api.obj
 0001:0008aa90       sfc_api_get_current_simulation_time 000000018008ba90 f   sfc_debug:sfc_api.obj
 0001:0008aab0       sfc_get_current_tag_type   000000018008bab0 f   sfc_debug:sfc_api.obj
 0001:0008aae0       sfc_get_current_coverage_percentage 000000018008bae0 f   sfc_debug:sfc_api.obj
 0001:0008ab00       sfc_get_current_statement_context 000000018008bb00 f   sfc_debug:sfc_api.obj
 0001:0008ab20       sfc_get_current_optional_integer 000000018008bb20 f   sfc_debug:sfc_api.obj
 0001:0008ab50       sfc_get_current_statement_info 000000018008bb50 f   sfc_debug:sfc_api.obj
 0001:0008abf0       sfc_api_get                000000018008bbf0 f   sfc_debug:sfc_api.obj
 0001:0008b850       sf_debug_sm_fill_state_activity_data 000000018008c850 f   sfc_debug:sfdb_animation.obj
 0001:0008e090       void_ptr_stack_vector_free_total 000000018008f090 f   sfc_debug:sfdb_data_browse.obj
 0001:0008e110       sf_debug_st_terminate_machine 000000018008f110 f   sfc_debug:sfdb_data_browse.obj
 0001:0008e150       sf_debug_st_terminate_instance 000000018008f150 f   sfc_debug:sfdb_data_browse.obj
 0001:0008e500       push_on_to_void_ptr_stack  000000018008f500 f   sfc_debug:sfdb_data_browse.obj
 0001:0008e690       pop_from_void_ptr_stack    000000018008f690 f   sfc_debug:sfdb_data_browse.obj
 0001:0008e7c0       sf_debug_st_get_data_value 000000018008f7c0 f   sfc_debug:sfdb_data_browse.obj
 0001:0008ecf0       mx_value                   000000018008fcf0 f   sfc_debug:sfdb_data_browse.obj
 0001:0008ed30       sf_debug_st_fill_data_struct 000000018008fd30 f   sfc_debug:sfdb_data_browse.obj
 0001:0008f070       data_type_format_strings   0000000180090070 f   sfc_debug:sfdb_data_browse.obj
 0001:0008f120       sf_debug_st_fill_data      0000000180090120 f   sfc_debug:sfdb_data_browse.obj
 0001:0008fe10       sf_debug_hm_get_simulink_handle 0000000180090e10 f   sfc_debug:sfdb_handle_management.obj
 0001:000908c0       sf_debug_hm_initialize_globals 00000001800918c0 f   sfc_debug:sfdb_handle_management.obj
 0001:000909c0       sf_debug_hm_get_machine_debug_flag 00000001800919c0 f   sfc_debug:sfdb_handle_management.obj
 0001:00090b30       sf_debug_hm_get_machine_id 0000000180091b30 f   sfc_debug:sfdb_handle_management.obj
 0001:00090c50       sf_debug_hm_get_chart_id   0000000180091c50 f   sfc_debug:sfdb_handle_management.obj
 0001:00090df0       sf_debug_hm_register_executing_SFunction 0000000180091df0 f   sfc_debug:sfdb_handle_management.obj
 0001:00091180       sf_debug_hm_form_object_boolean_properties 0000000180092180 f   sfc_debug:sfdb_handle_management.obj
 0001:00091450       sf_debug_hm_form_object_properties 0000000180092450 f   sfc_debug:sfdb_handle_management.obj
 0001:00091690       sf_debug_hm_terminate_charts 0000000180092690 f   sfc_debug:sfdb_handle_management.obj
 0001:00091d70       sf_debug_hm_terminate_machines 0000000180092d70 f   sfc_debug:sfdb_handle_management.obj
 0001:000937e0       sf_debug_ss_copy_dimension 00000001800947e0 f   sfc_debug:sfdb_symbol_scope.obj
 0001:000938a0       sf_debug_ss_get_number_elements 00000001800948a0 f   sfc_debug:sfdb_symbol_scope.obj
 0001:000938c0       sf_debug_ss_fill_data_struct 00000001800948c0 f   sfc_debug:sfdb_symbol_scope.obj
 0001:00093c10       sf_debug_ss_reset_data_info 0000000180094c10 f   sfc_debug:sfdb_symbol_scope.obj
 0001:00093c70       sf_debug_fill_data_info_by_symbol_scope_entry 0000000180094c70 f   sfc_debug:sfdb_symbol_scope.obj
 0001:00093d30       sf_debug_fill_data_info_by_data_vector 0000000180094d30 f   sfc_debug:sfdb_symbol_scope.obj
 0001:00093f80       get_data_info_helper       0000000180094f80 f   sfc_debug:sfdb_symbol_scope.obj
 0001:00094270       sf_debug_ss_get_data_info  0000000180095270 f   sfc_debug:sfdb_symbol_scope.obj
 0001:00094490       sf_debug_select_mex_function 0000000180095490 f   sfc_debug:sfdb_symbol_scope.obj
 0001:000944c0       sf_debug_is_dyn_matrix_initialized 00000001800954c0 f   sfc_debug:sfdb_symbol_scope.obj
 0001:000944e0       sf_debug_ss_set_data_value_try 00000001800954e0 f   sfc_debug:sfdb_symbol_scope.obj
 0001:000946d0       sf_debug_ss_get_data_value 00000001800956d0 f   sfc_debug:sfdb_symbol_scope.obj
 0001:00094e30       sf_debug_ss_data_bytes_string 0000000180095e30 f   sfc_debug:sfdb_symbol_scope.obj
 0001:00094ec0       sf_debug_ss_data_class_string 0000000180095ec0 f   sfc_debug:sfdb_symbol_scope.obj
 0001:00095240       sf_debug_ss_data_size_string 0000000180096240 f   sfc_debug:sfdb_symbol_scope.obj
 0001:00095320       sf_debug_ss_data_create_data_info_struct 0000000180096320 f   sfc_debug:sfdb_symbol_scope.obj
 0001:000955d0       sf_debug_ss_data_create_name_value_pair 00000001800965d0 f   sfc_debug:sfdb_symbol_scope.obj
 0001:00095670       sf_debug_ss_data_get_whos_info 0000000180096670 f   sfc_debug:sfdb_symbol_scope.obj
 0001:00095680       same_named_data_in_data_array 0000000180096680 f   sfc_debug:sfdb_symbol_scope.obj
 0001:00096e10       sf_debug_cc_terminate_chart 0000000180097e10 f   sfc_debug:sfdb_coverage.obj
 0001:00097120       sf_debug_cc_terminate_instance 0000000180098120 f   sfc_debug:sfdb_coverage.obj
 0001:00097cf0       sf_debug_cc_mark_object_if_needed 0000000180098cf0 f   sfc_debug:sfdb_coverage.obj
 0001:00098570       sf_debug_bm_initialize_eml 0000000180099570 f   sfc_debug:sfdb_breakpoints.obj
 0001:00099630       sf_debug_bm_map_debug_tag_to_breakpoint_tag 000000018009a630 f   sfc_debug:sfdb_breakpoints.obj
 0001:00099710       sf_debug_bm_is_a_eml_breakpoint_impl 000000018009a710 f   sfc_debug:sfdb_breakpoints.obj
 0001:0009b040       sf_debug_sc_push_on_error_stack 000000018009c040 f   sfc_debug:sfdb_state_consistency.obj
 0001:0009b160       sf_debug_sc_reset_error_stack 000000018009c160 f   sfc_debug:sfdb_state_consistency.obj
 0001:0009b2f0       sf_debug_sc_is_state_inconsistent 000000018009c2f0 f   sfc_debug:sfdb_state_consistency.obj
 0001:0009b5e0       sf_debug_sc_fill_consistency_info 000000018009c5e0 f   sfc_debug:sfdb_state_consistency.obj
 0001:0009bb80       void_assertion_fcn         000000018009cb80 f   sfc_debug:sfdb_call_stack.obj
 0001:0009c0d0       sf_debug_tm_fill_local_trace 000000018009d0d0 f   sfc_debug:sfdb_call_stack.obj
 0001:0009c670       sf_debug_cd_terminate_instance 000000018009d670 f   sfc_debug:sfdb_cycle_detection.obj
 0001:0009c6d0       sf_debug_cd_free_checksum_stack 000000018009d6d0 f   sfc_debug:sfdb_cycle_detection.obj
 0001:0009c720       sf_debug_cd_reset_pack_strings 000000018009d720 f   sfc_debug:sfdb_cycle_detection.obj
 0001:0009cdc0       md5file_clear              000000018009ddc0 f   sfc_debug:ckmd5.obj
 0001:0009cdf0       Encode                     000000018009ddf0 f   sfc_debug:ckmd5.obj
 0001:0009ce40       Decode                     000000018009de40 f   sfc_debug:ckmd5.obj
 0001:0009cee0       MD5Transform               000000018009dee0 f   sfc_debug:ckmd5.obj
 0001:0009d740       md5file_addn               000000018009e740 f   sfc_debug:ckmd5.obj
 0001:0009d810       md5file_hash               000000018009e810 f   sfc_debug:ckmd5.obj
 0001:0009dd40       pre_c_init                 000000018009ed40 f   MSVCRT:crtdll.obj
 0001:0009dffc       __DllMainCRTStartup        000000018009effc f   MSVCRT:crtdll.obj
 0001:0009e6e0       __DllMainCRTStartup$filt$0 000000018009f6e0 f   MSVCRT:crtdll.obj
 0001:0009e710       __DllMainCRTStartup$fin$1  000000018009f710 f   MSVCRT:crtdll.obj
 0001:0009e729       _onexit$fin$0              000000018009f729 f   MSVCRT:atonexit.obj
 0001:0009e750       _IsNonwritableInCurrentImage$filt$0 000000018009f750 f   MSVCRT:pesect.obj
